Archive member included because of file (symbol)

d:/programas/microchip/xc32/v2.10/bin/bin/../../lib/gcc/pic32mx/4.8.3\libgcc.a(_udivdi3.o)
                              build/default/production/lvgl/src/lv_misc/lv_printf.o (__udivdi3)
d:/programas/microchip/xc32/v2.10/bin/bin/../../lib/gcc/pic32mx/4.8.3\libgcc.a(_umoddi3.o)
                              build/default/production/lvgl/src/lv_misc/lv_printf.o (__umoddi3)
d:/programas/microchip/xc32/v2.10/bin/bin/../../lib/gcc/pic32mx/4.8.3\libgcc.a(floatunsisf.o)
                              build/default/production/lvgl/src/lv_misc/lv_printf.o (__floatunsisf)
d:/programas/microchip/xc32/v2.10/bin/bin/../../lib/gcc/pic32mx/4.8.3/../../../../pic32mx/lib\libpic32.a(memcpy.o)
                              build/default/production/lvgl/src/lv_core/lv_debug.o (memcpy)
d:/programas/microchip/xc32/v2.10/bin/bin/../../lib/gcc/pic32mx/4.8.3/../../../../pic32mx/lib\libpic32.a(memset.o)
                              build/default/production/lvgl/src/lv_core/lv_obj.o (memset)
d:/programas/microchip/xc32/v2.10/bin/bin/../../lib/gcc/pic32mx/4.8.3/../../../../pic32mx/lib\libpic32.a(strcmp.o)
                              build/default/production/lvgl/src/lv_core/lv_debug.o (strcmp)
d:/programas/microchip/xc32/v2.10/bin/bin/../../lib/gcc/pic32mx/4.8.3/../../../../pic32mx/lib\libpic32.a(strcpy.o)
                              build/default/production/lvgl/src/lv_draw/lv_img_decoder.o (strcpy)
d:/programas/microchip/xc32/v2.10/bin/bin/../../lib/gcc/pic32mx/4.8.3/../../../../pic32mx/lib\libpic32.a(strlen.o)
                              build/default/production/lvgl/src/lv_core/lv_debug.o (strlen)
d:/programas/microchip/xc32/v2.10/bin/bin/../../lib/gcc/pic32mx/4.8.3/../../../../pic32mx/lib\libpic32.a(default-bootstrap-exception-handler.o)
                              d:/programas/microchip/xc32/v2.10/bin/bin/../../lib/gcc/pic32mx/4.8.3/../../../../pic32mx/lib/./proc/32MX795F512H/crt0_mips32r2.o (_bootstrap_exception_handler)
d:/programas/microchip/xc32/v2.10/bin/bin/../../lib/gcc/pic32mx/4.8.3/../../../../pic32mx/lib\libpic32.a(default-on-reset.o)
                              d:/programas/microchip/xc32/v2.10/bin/bin/../../lib/gcc/pic32mx/4.8.3/../../../../pic32mx/lib/./proc/32MX795F512H/crt0_mips32r2.o (_on_reset)
d:/programas/microchip/xc32/v2.10/bin/bin/../../lib/gcc/pic32mx/4.8.3/../../../../pic32mx/lib\libpic32.a(default-on-bootstrap.o)
                              d:/programas/microchip/xc32/v2.10/bin/bin/../../lib/gcc/pic32mx/4.8.3/../../../../pic32mx/lib/./proc/32MX795F512H/crt0_mips32r2.o (_on_bootstrap)
d:/programas/microchip/xc32/v2.10/bin/bin/../../lib/gcc/pic32mx/4.8.3/../../../../pic32mx/lib\libpic32.a(default-nmi-handler.o)
                              d:/programas/microchip/xc32/v2.10/bin/bin/../../lib/gcc/pic32mx/4.8.3/../../../../pic32mx/lib/./proc/32MX795F512H/crt0_mips32r2.o (_nmi_handler)
d:/programas/microchip/xc32/v2.10/bin/bin/../../lib/gcc/pic32mx/4.8.3/../../../../pic32mx/lib\libpic32.a(pic32_data_init.o)
                              d:/programas/microchip/xc32/v2.10/bin/bin/../../lib/gcc/pic32mx/4.8.3/../../../../pic32mx/lib/./proc/32MX795F512H/crt0_mips32r2.o (__pic32_data_init)
d:/programas/microchip/xc32/v2.10/bin/bin/../../lib/gcc/pic32mx/4.8.3/../../../../pic32mx/lib\libpic32.a(general-exception.o)
                              d:/programas/microchip/xc32/v2.10/bin/bin/../../lib/gcc/pic32mx/4.8.3/../../../../pic32mx/lib/./proc/32MX795F512H/crt0_mips32r2.o (_general_exception_context)
d:/programas/microchip/xc32/v2.10/bin/bin/../../lib/gcc/pic32mx/4.8.3/../../../../pic32mx/lib\libpic32.a(vector0.o)
                              d:/programas/microchip/xc32/v2.10/bin/bin/../../lib/gcc/pic32mx/4.8.3/../../../../pic32mx/lib/./proc/32MX795F512H\default_isr_vectors.o (__vector_dispatch_0)
d:/programas/microchip/xc32/v2.10/bin/bin/../../lib/gcc/pic32mx/4.8.3/../../../../pic32mx/lib\libpic32.a(vector1.o)
                              d:/programas/microchip/xc32/v2.10/bin/bin/../../lib/gcc/pic32mx/4.8.3/../../../../pic32mx/lib/./proc/32MX795F512H\default_isr_vectors.o (__vector_dispatch_1)
d:/programas/microchip/xc32/v2.10/bin/bin/../../lib/gcc/pic32mx/4.8.3/../../../../pic32mx/lib\libpic32.a(vector2.o)
                              d:/programas/microchip/xc32/v2.10/bin/bin/../../lib/gcc/pic32mx/4.8.3/../../../../pic32mx/lib/./proc/32MX795F512H\default_isr_vectors.o (__vector_dispatch_2)
d:/programas/microchip/xc32/v2.10/bin/bin/../../lib/gcc/pic32mx/4.8.3/../../../../pic32mx/lib\libpic32.a(vector3.o)
                              d:/programas/microchip/xc32/v2.10/bin/bin/../../lib/gcc/pic32mx/4.8.3/../../../../pic32mx/lib/./proc/32MX795F512H\default_isr_vectors.o (__vector_dispatch_3)
d:/programas/microchip/xc32/v2.10/bin/bin/../../lib/gcc/pic32mx/4.8.3/../../../../pic32mx/lib\libpic32.a(vector5.o)
                              d:/programas/microchip/xc32/v2.10/bin/bin/../../lib/gcc/pic32mx/4.8.3/../../../../pic32mx/lib/./proc/32MX795F512H\default_isr_vectors.o (__vector_dispatch_5)
d:/programas/microchip/xc32/v2.10/bin/bin/../../lib/gcc/pic32mx/4.8.3/../../../../pic32mx/lib\libpic32.a(vector6.o)
                              d:/programas/microchip/xc32/v2.10/bin/bin/../../lib/gcc/pic32mx/4.8.3/../../../../pic32mx/lib/./proc/32MX795F512H\default_isr_vectors.o (__vector_dispatch_6)
d:/programas/microchip/xc32/v2.10/bin/bin/../../lib/gcc/pic32mx/4.8.3/../../../../pic32mx/lib\libpic32.a(vector7.o)
                              d:/programas/microchip/xc32/v2.10/bin/bin/../../lib/gcc/pic32mx/4.8.3/../../../../pic32mx/lib/./proc/32MX795F512H\default_isr_vectors.o (__vector_dispatch_7)
d:/programas/microchip/xc32/v2.10/bin/bin/../../lib/gcc/pic32mx/4.8.3/../../../../pic32mx/lib\libpic32.a(vector8.o)
                              d:/programas/microchip/xc32/v2.10/bin/bin/../../lib/gcc/pic32mx/4.8.3/../../../../pic32mx/lib/./proc/32MX795F512H\default_isr_vectors.o (__vector_dispatch_8)
d:/programas/microchip/xc32/v2.10/bin/bin/../../lib/gcc/pic32mx/4.8.3/../../../../pic32mx/lib\libpic32.a(vector9.o)
                              d:/programas/microchip/xc32/v2.10/bin/bin/../../lib/gcc/pic32mx/4.8.3/../../../../pic32mx/lib/./proc/32MX795F512H\default_isr_vectors.o (__vector_dispatch_9)
d:/programas/microchip/xc32/v2.10/bin/bin/../../lib/gcc/pic32mx/4.8.3/../../../../pic32mx/lib\libpic32.a(vector10.o)
                              d:/programas/microchip/xc32/v2.10/bin/bin/../../lib/gcc/pic32mx/4.8.3/../../../../pic32mx/lib/./proc/32MX795F512H\default_isr_vectors.o (__vector_dispatch_10)
d:/programas/microchip/xc32/v2.10/bin/bin/../../lib/gcc/pic32mx/4.8.3/../../../../pic32mx/lib\libpic32.a(vector11.o)
                              d:/programas/microchip/xc32/v2.10/bin/bin/../../lib/gcc/pic32mx/4.8.3/../../../../pic32mx/lib/./proc/32MX795F512H\default_isr_vectors.o (__vector_dispatch_11)
d:/programas/microchip/xc32/v2.10/bin/bin/../../lib/gcc/pic32mx/4.8.3/../../../../pic32mx/lib\libpic32.a(vector12.o)
                              d:/programas/microchip/xc32/v2.10/bin/bin/../../lib/gcc/pic32mx/4.8.3/../../../../pic32mx/lib/./proc/32MX795F512H\default_isr_vectors.o (__vector_dispatch_12)
d:/programas/microchip/xc32/v2.10/bin/bin/../../lib/gcc/pic32mx/4.8.3/../../../../pic32mx/lib\libpic32.a(vector13.o)
                              d:/programas/microchip/xc32/v2.10/bin/bin/../../lib/gcc/pic32mx/4.8.3/../../../../pic32mx/lib/./proc/32MX795F512H\default_isr_vectors.o (__vector_dispatch_13)
d:/programas/microchip/xc32/v2.10/bin/bin/../../lib/gcc/pic32mx/4.8.3/../../../../pic32mx/lib\libpic32.a(vector14.o)
                              d:/programas/microchip/xc32/v2.10/bin/bin/../../lib/gcc/pic32mx/4.8.3/../../../../pic32mx/lib/./proc/32MX795F512H\default_isr_vectors.o (__vector_dispatch_14)
d:/programas/microchip/xc32/v2.10/bin/bin/../../lib/gcc/pic32mx/4.8.3/../../../../pic32mx/lib\libpic32.a(vector15.o)
                              d:/programas/microchip/xc32/v2.10/bin/bin/../../lib/gcc/pic32mx/4.8.3/../../../../pic32mx/lib/./proc/32MX795F512H\default_isr_vectors.o (__vector_dispatch_15)
d:/programas/microchip/xc32/v2.10/bin/bin/../../lib/gcc/pic32mx/4.8.3/../../../../pic32mx/lib\libpic32.a(vector16.o)
                              d:/programas/microchip/xc32/v2.10/bin/bin/../../lib/gcc/pic32mx/4.8.3/../../../../pic32mx/lib/./proc/32MX795F512H\default_isr_vectors.o (__vector_dispatch_16)
d:/programas/microchip/xc32/v2.10/bin/bin/../../lib/gcc/pic32mx/4.8.3/../../../../pic32mx/lib\libpic32.a(vector17.o)
                              d:/programas/microchip/xc32/v2.10/bin/bin/../../lib/gcc/pic32mx/4.8.3/../../../../pic32mx/lib/./proc/32MX795F512H\default_isr_vectors.o (__vector_dispatch_17)
d:/programas/microchip/xc32/v2.10/bin/bin/../../lib/gcc/pic32mx/4.8.3/../../../../pic32mx/lib\libpic32.a(vector18.o)
                              d:/programas/microchip/xc32/v2.10/bin/bin/../../lib/gcc/pic32mx/4.8.3/../../../../pic32mx/lib/./proc/32MX795F512H\default_isr_vectors.o (__vector_dispatch_18)
d:/programas/microchip/xc32/v2.10/bin/bin/../../lib/gcc/pic32mx/4.8.3/../../../../pic32mx/lib\libpic32.a(vector19.o)
                              d:/programas/microchip/xc32/v2.10/bin/bin/../../lib/gcc/pic32mx/4.8.3/../../../../pic32mx/lib/./proc/32MX795F512H\default_isr_vectors.o (__vector_dispatch_19)
d:/programas/microchip/xc32/v2.10/bin/bin/../../lib/gcc/pic32mx/4.8.3/../../../../pic32mx/lib\libpic32.a(vector20.o)
                              d:/programas/microchip/xc32/v2.10/bin/bin/../../lib/gcc/pic32mx/4.8.3/../../../../pic32mx/lib/./proc/32MX795F512H\default_isr_vectors.o (__vector_dispatch_20)
d:/programas/microchip/xc32/v2.10/bin/bin/../../lib/gcc/pic32mx/4.8.3/../../../../pic32mx/lib\libpic32.a(vector21.o)
                              d:/programas/microchip/xc32/v2.10/bin/bin/../../lib/gcc/pic32mx/4.8.3/../../../../pic32mx/lib/./proc/32MX795F512H\default_isr_vectors.o (__vector_dispatch_21)
d:/programas/microchip/xc32/v2.10/bin/bin/../../lib/gcc/pic32mx/4.8.3/../../../../pic32mx/lib\libpic32.a(vector22.o)
                              d:/programas/microchip/xc32/v2.10/bin/bin/../../lib/gcc/pic32mx/4.8.3/../../../../pic32mx/lib/./proc/32MX795F512H\default_isr_vectors.o (__vector_dispatch_22)
d:/programas/microchip/xc32/v2.10/bin/bin/../../lib/gcc/pic32mx/4.8.3/../../../../pic32mx/lib\libpic32.a(vector23.o)
                              d:/programas/microchip/xc32/v2.10/bin/bin/../../lib/gcc/pic32mx/4.8.3/../../../../pic32mx/lib/./proc/32MX795F512H\default_isr_vectors.o (__vector_dispatch_23)
d:/programas/microchip/xc32/v2.10/bin/bin/../../lib/gcc/pic32mx/4.8.3/../../../../pic32mx/lib\libpic32.a(vector24.o)
                              d:/programas/microchip/xc32/v2.10/bin/bin/../../lib/gcc/pic32mx/4.8.3/../../../../pic32mx/lib/./proc/32MX795F512H\default_isr_vectors.o (__vector_dispatch_24)
d:/programas/microchip/xc32/v2.10/bin/bin/../../lib/gcc/pic32mx/4.8.3/../../../../pic32mx/lib\libpic32.a(vector25.o)
                              d:/programas/microchip/xc32/v2.10/bin/bin/../../lib/gcc/pic32mx/4.8.3/../../../../pic32mx/lib/./proc/32MX795F512H\default_isr_vectors.o (__vector_dispatch_25)
d:/programas/microchip/xc32/v2.10/bin/bin/../../lib/gcc/pic32mx/4.8.3/../../../../pic32mx/lib\libpic32.a(vector26.o)
                              d:/programas/microchip/xc32/v2.10/bin/bin/../../lib/gcc/pic32mx/4.8.3/../../../../pic32mx/lib/./proc/32MX795F512H\default_isr_vectors.o (__vector_dispatch_26)
d:/programas/microchip/xc32/v2.10/bin/bin/../../lib/gcc/pic32mx/4.8.3/../../../../pic32mx/lib\libpic32.a(vector27.o)
                              d:/programas/microchip/xc32/v2.10/bin/bin/../../lib/gcc/pic32mx/4.8.3/../../../../pic32mx/lib/./proc/32MX795F512H\default_isr_vectors.o (__vector_dispatch_27)
d:/programas/microchip/xc32/v2.10/bin/bin/../../lib/gcc/pic32mx/4.8.3/../../../../pic32mx/lib\libpic32.a(vector28.o)
                              d:/programas/microchip/xc32/v2.10/bin/bin/../../lib/gcc/pic32mx/4.8.3/../../../../pic32mx/lib/./proc/32MX795F512H\default_isr_vectors.o (__vector_dispatch_28)
d:/programas/microchip/xc32/v2.10/bin/bin/../../lib/gcc/pic32mx/4.8.3/../../../../pic32mx/lib\libpic32.a(vector29.o)
                              d:/programas/microchip/xc32/v2.10/bin/bin/../../lib/gcc/pic32mx/4.8.3/../../../../pic32mx/lib/./proc/32MX795F512H\default_isr_vectors.o (__vector_dispatch_29)
d:/programas/microchip/xc32/v2.10/bin/bin/../../lib/gcc/pic32mx/4.8.3/../../../../pic32mx/lib\libpic32.a(vector30.o)
                              d:/programas/microchip/xc32/v2.10/bin/bin/../../lib/gcc/pic32mx/4.8.3/../../../../pic32mx/lib/./proc/32MX795F512H\default_isr_vectors.o (__vector_dispatch_30)
d:/programas/microchip/xc32/v2.10/bin/bin/../../lib/gcc/pic32mx/4.8.3/../../../../pic32mx/lib\libpic32.a(vector31.o)
                              d:/programas/microchip/xc32/v2.10/bin/bin/../../lib/gcc/pic32mx/4.8.3/../../../../pic32mx/lib/./proc/32MX795F512H\default_isr_vectors.o (__vector_dispatch_31)
d:/programas/microchip/xc32/v2.10/bin/bin/../../lib/gcc/pic32mx/4.8.3/../../../../pic32mx/lib\libpic32.a(vector32.o)
                              d:/programas/microchip/xc32/v2.10/bin/bin/../../lib/gcc/pic32mx/4.8.3/../../../../pic32mx/lib/./proc/32MX795F512H\default_isr_vectors.o (__vector_dispatch_32)
d:/programas/microchip/xc32/v2.10/bin/bin/../../lib/gcc/pic32mx/4.8.3/../../../../pic32mx/lib\libpic32.a(vector33.o)
                              d:/programas/microchip/xc32/v2.10/bin/bin/../../lib/gcc/pic32mx/4.8.3/../../../../pic32mx/lib/./proc/32MX795F512H\default_isr_vectors.o (__vector_dispatch_33)
d:/programas/microchip/xc32/v2.10/bin/bin/../../lib/gcc/pic32mx/4.8.3/../../../../pic32mx/lib\libpic32.a(vector34.o)
                              d:/programas/microchip/xc32/v2.10/bin/bin/../../lib/gcc/pic32mx/4.8.3/../../../../pic32mx/lib/./proc/32MX795F512H\default_isr_vectors.o (__vector_dispatch_34)
d:/programas/microchip/xc32/v2.10/bin/bin/../../lib/gcc/pic32mx/4.8.3/../../../../pic32mx/lib\libpic32.a(vector35.o)
                              d:/programas/microchip/xc32/v2.10/bin/bin/../../lib/gcc/pic32mx/4.8.3/../../../../pic32mx/lib/./proc/32MX795F512H\default_isr_vectors.o (__vector_dispatch_35)
d:/programas/microchip/xc32/v2.10/bin/bin/../../lib/gcc/pic32mx/4.8.3/../../../../pic32mx/lib\libpic32.a(vector36.o)
                              d:/programas/microchip/xc32/v2.10/bin/bin/../../lib/gcc/pic32mx/4.8.3/../../../../pic32mx/lib/./proc/32MX795F512H\default_isr_vectors.o (__vector_dispatch_36)
d:/programas/microchip/xc32/v2.10/bin/bin/../../lib/gcc/pic32mx/4.8.3/../../../../pic32mx/lib\libpic32.a(vector37.o)
                              d:/programas/microchip/xc32/v2.10/bin/bin/../../lib/gcc/pic32mx/4.8.3/../../../../pic32mx/lib/./proc/32MX795F512H\default_isr_vectors.o (__vector_dispatch_37)
d:/programas/microchip/xc32/v2.10/bin/bin/../../lib/gcc/pic32mx/4.8.3/../../../../pic32mx/lib\libpic32.a(vector38.o)
                              d:/programas/microchip/xc32/v2.10/bin/bin/../../lib/gcc/pic32mx/4.8.3/../../../../pic32mx/lib/./proc/32MX795F512H\default_isr_vectors.o (__vector_dispatch_38)
d:/programas/microchip/xc32/v2.10/bin/bin/../../lib/gcc/pic32mx/4.8.3/../../../../pic32mx/lib\libpic32.a(vector39.o)
                              d:/programas/microchip/xc32/v2.10/bin/bin/../../lib/gcc/pic32mx/4.8.3/../../../../pic32mx/lib/./proc/32MX795F512H\default_isr_vectors.o (__vector_dispatch_39)
d:/programas/microchip/xc32/v2.10/bin/bin/../../lib/gcc/pic32mx/4.8.3/../../../../pic32mx/lib\libpic32.a(vector40.o)
                              d:/programas/microchip/xc32/v2.10/bin/bin/../../lib/gcc/pic32mx/4.8.3/../../../../pic32mx/lib/./proc/32MX795F512H\default_isr_vectors.o (__vector_dispatch_40)
d:/programas/microchip/xc32/v2.10/bin/bin/../../lib/gcc/pic32mx/4.8.3/../../../../pic32mx/lib\libpic32.a(vector41.o)
                              d:/programas/microchip/xc32/v2.10/bin/bin/../../lib/gcc/pic32mx/4.8.3/../../../../pic32mx/lib/./proc/32MX795F512H\default_isr_vectors.o (__vector_dispatch_41)
d:/programas/microchip/xc32/v2.10/bin/bin/../../lib/gcc/pic32mx/4.8.3/../../../../pic32mx/lib\libpic32.a(vector42.o)
                              d:/programas/microchip/xc32/v2.10/bin/bin/../../lib/gcc/pic32mx/4.8.3/../../../../pic32mx/lib/./proc/32MX795F512H\default_isr_vectors.o (__vector_dispatch_42)
d:/programas/microchip/xc32/v2.10/bin/bin/../../lib/gcc/pic32mx/4.8.3/../../../../pic32mx/lib\libpic32.a(vector43.o)
                              d:/programas/microchip/xc32/v2.10/bin/bin/../../lib/gcc/pic32mx/4.8.3/../../../../pic32mx/lib/./proc/32MX795F512H\default_isr_vectors.o (__vector_dispatch_43)
d:/programas/microchip/xc32/v2.10/bin/bin/../../lib/gcc/pic32mx/4.8.3/../../../../pic32mx/lib\libpic32.a(vector44.o)
                              d:/programas/microchip/xc32/v2.10/bin/bin/../../lib/gcc/pic32mx/4.8.3/../../../../pic32mx/lib/./proc/32MX795F512H\default_isr_vectors.o (__vector_dispatch_44)
d:/programas/microchip/xc32/v2.10/bin/bin/../../lib/gcc/pic32mx/4.8.3/../../../../pic32mx/lib\libpic32.a(vector45.o)
                              d:/programas/microchip/xc32/v2.10/bin/bin/../../lib/gcc/pic32mx/4.8.3/../../../../pic32mx/lib/./proc/32MX795F512H\default_isr_vectors.o (__vector_dispatch_45)
d:/programas/microchip/xc32/v2.10/bin/bin/../../lib/gcc/pic32mx/4.8.3/../../../../pic32mx/lib\libpic32.a(vector46.o)
                              d:/programas/microchip/xc32/v2.10/bin/bin/../../lib/gcc/pic32mx/4.8.3/../../../../pic32mx/lib/./proc/32MX795F512H\default_isr_vectors.o (__vector_dispatch_46)
d:/programas/microchip/xc32/v2.10/bin/bin/../../lib/gcc/pic32mx/4.8.3/../../../../pic32mx/lib\libpic32.a(vector47.o)
                              d:/programas/microchip/xc32/v2.10/bin/bin/../../lib/gcc/pic32mx/4.8.3/../../../../pic32mx/lib/./proc/32MX795F512H\default_isr_vectors.o (__vector_dispatch_47)
d:/programas/microchip/xc32/v2.10/bin/bin/../../lib/gcc/pic32mx/4.8.3/../../../../pic32mx/lib\libpic32.a(vector48.o)
                              d:/programas/microchip/xc32/v2.10/bin/bin/../../lib/gcc/pic32mx/4.8.3/../../../../pic32mx/lib/./proc/32MX795F512H\default_isr_vectors.o (__vector_dispatch_48)
d:/programas/microchip/xc32/v2.10/bin/bin/../../lib/gcc/pic32mx/4.8.3/../../../../pic32mx/lib\libpic32.a(vector49.o)
                              d:/programas/microchip/xc32/v2.10/bin/bin/../../lib/gcc/pic32mx/4.8.3/../../../../pic32mx/lib/./proc/32MX795F512H\default_isr_vectors.o (__vector_dispatch_49)
d:/programas/microchip/xc32/v2.10/bin/bin/../../lib/gcc/pic32mx/4.8.3/../../../../pic32mx/lib\libpic32.a(vector50.o)
                              d:/programas/microchip/xc32/v2.10/bin/bin/../../lib/gcc/pic32mx/4.8.3/../../../../pic32mx/lib/./proc/32MX795F512H\default_isr_vectors.o (__vector_dispatch_50)
d:/programas/microchip/xc32/v2.10/bin/bin/../../lib/gcc/pic32mx/4.8.3/../../../../pic32mx/lib\libpic32.a(vector51.o)
                              d:/programas/microchip/xc32/v2.10/bin/bin/../../lib/gcc/pic32mx/4.8.3/../../../../pic32mx/lib/./proc/32MX795F512H\default_isr_vectors.o (__vector_dispatch_51)
d:/programas/microchip/xc32/v2.10/bin/bin/../../lib/gcc/pic32mx/4.8.3/../../../../pic32mx/lib\libpic32.a(default-general-exception-handler.o)
                              d:/programas/microchip/xc32/v2.10/bin/bin/../../lib/gcc/pic32mx/4.8.3/../../../../pic32mx/lib\libpic32.a(general-exception.o) (_general_exception_handler)
d:/programas/microchip/xc32/v2.10/bin/bin/../../lib/gcc/pic32mx/4.8.3/../../../../pic32mx/lib\libpic32.a(defaultinterrupt.o)
                              d:/programas/microchip/xc32/v2.10/bin/bin/../../lib/gcc/pic32mx/4.8.3/../../../../pic32mx/lib\libpic32.a(vector0.o) (_DefaultInterrupt)
d:/programas/microchip/xc32/v2.10/bin/bin/../../lib/gcc/pic32mx/4.8.3/../../../../pic32mx/lib\liblega-c.a(strncpy.o)
                              build/default/production/lvgl/src/lv_objx/lv_chart.o (strncpy)
d:/programas/microchip/xc32/v2.10/bin/bin/../../lib/gcc/pic32mx/4.8.3/../../../../pic32mx/lib\libm.a(fp32div.o)
                              build/default/production/lvgl/src/lv_misc/lv_printf.o (fpdiv)
d:/programas/microchip/xc32/v2.10/bin/bin/../../lib/gcc/pic32mx/4.8.3/../../../../pic32mx/lib\libm.a(fp32mul.o)
                              build/default/production/lvgl/src/lv_misc/lv_printf.o (fpmul)
d:/programas/microchip/xc32/v2.10/bin/bin/../../lib/gcc/pic32mx/4.8.3/../../../../pic32mx/lib\libm.a(fp32subadd.o)
                              build/default/production/lvgl/src/lv_misc/lv_printf.o (fpsub)
d:/programas/microchip/xc32/v2.10/bin/bin/../../lib/gcc/pic32mx/4.8.3/../../../../pic32mx/lib\libm.a(fpcmp.o)
                              build/default/production/lvgl/src/lv_misc/lv_printf.o (fpcmp)
d:/programas/microchip/xc32/v2.10/bin/bin/../../lib/gcc/pic32mx/4.8.3/../../../../pic32mx/lib\libm.a(fptoli.o)
                              build/default/production/lvgl/src/lv_misc/lv_printf.o (fptosi)
d:/programas/microchip/xc32/v2.10/bin/bin/../../lib/gcc/pic32mx/4.8.3/../../../../pic32mx/lib\libm.a(fptoul.o)
                              build/default/production/lvgl/src/lv_misc/lv_printf.o (fptoui)
d:/programas/microchip/xc32/v2.10/bin/bin/../../lib/gcc/pic32mx/4.8.3/../../../../pic32mx/lib\libm.a(sitofp.o)
                              build/default/production/lvgl/src/lv_misc/lv_printf.o (sitofp)

Allocating common symbols
Common symbol       size              file

_lv_group_ll        0xc               build/default/production/lvgl/src/lv_misc/lv_gc.o
lv_style_transp_fit
                    0x40              build/default/production/lvgl/src/lv_core/lv_style.o
lv_style_btn_ina    0x40              build/default/production/lvgl/src/lv_core/lv_style.o
lv_style_btn_rel    0x40              build/default/production/lvgl/src/lv_core/lv_style.o
lv_style_transp     0x40              build/default/production/lvgl/src/lv_core/lv_style.o
_lv_disp_ll         0xc               build/default/production/lvgl/src/lv_misc/lv_gc.o
_lv_file_ll         0xc               build/default/production/lvgl/src/lv_misc/lv_gc.o
lv_style_btn_pr     0x40              build/default/production/lvgl/src/lv_core/lv_style.o
lv_style_pretty     0x40              build/default/production/lvgl/src/lv_core/lv_style.o
lv_style_scr        0x40              build/default/production/lvgl/src/lv_core/lv_style.o
_lv_img_defoder_ll  0xc               build/default/production/lvgl/src/lv_misc/lv_gc.o
_lv_drv_ll          0xc               build/default/production/lvgl/src/lv_misc/lv_gc.o
_lv_task_act        0x4               build/default/production/lvgl/src/lv_misc/lv_gc.o
lv_style_btn_tgl_pr
                    0x40              build/default/production/lvgl/src/lv_core/lv_style.o
lv_style_transp_tight
                    0x40              build/default/production/lvgl/src/lv_core/lv_style.o
lv_style_btn_tgl_rel
                    0x40              build/default/production/lvgl/src/lv_core/lv_style.o
lv_style_plain      0x40              build/default/production/lvgl/src/lv_core/lv_style.o
lv_style_plain_color
                    0x40              build/default/production/lvgl/src/lv_core/lv_style.o
lv_style_pretty_color
                    0x40              build/default/production/lvgl/src/lv_core/lv_style.o
_lv_img_cache_array
                    0x4               build/default/production/lvgl/src/lv_misc/lv_gc.o
_lv_task_ll         0xc               build/default/production/lvgl/src/lv_misc/lv_gc.o
_lv_indev_ll        0xc               build/default/production/lvgl/src/lv_misc/lv_gc.o
_lv_draw_buf        0x4               build/default/production/lvgl/src/lv_misc/lv_gc.o
_lv_anim_ll         0xc               build/default/production/lvgl/src/lv_misc/lv_gc.o

Microchip PIC32 Memory-Usage Report

kseg0 Program-Memory Usage
section                    address  length [bytes]      (dec)  Description
-------                 ----------  -------------------------  -----------
.rodata                 0x9d000000         0x5bf4       23540  Read-only const 
.text                   0x9d005bf4         0x3e3c       15932  App's exec code 
.rodata                 0x9d009a30         0x3dac       15788  Read-only const 
.text                   0x9d00d7dc         0x3580       13696  App's exec code 
.rodata                 0x9d010d5c         0x33ec       13292  Read-only const 
.text                   0x9d014148         0x565c       22108  App's exec code 
.text                   0x9d0197a4         0x4bb4       19380  App's exec code 
.text                   0x9d01e358         0x4418       17432  App's exec code 
.text                   0x9d022770         0x3efc       16124  App's exec code 
.text                   0x9d02666c         0x3be0       15328  App's exec code 
.text                   0x9d02a24c         0x3824       14372  App's exec code 
.text                   0x9d02da70         0x3574       13684  App's exec code 
.text                   0x9d030fe4         0x2c6c       11372  App's exec code 
.text                   0x9d033c50         0x26bc        9916  App's exec code 
.text                   0x9d03630c         0x22b0        8880  App's exec code 
.text                   0x9d0385bc         0x2014        8212  App's exec code 
.text                   0x9d03a5d0         0x1f5c        8028  App's exec code 
.text                   0x9d03c52c         0x1c10        7184  App's exec code 
.text                   0x9d03e13c         0x1a4c        6732  App's exec code 
.text                   0x9d03fb88         0x1900        6400  App's exec code 
.text                   0x9d041488         0x1864        6244  App's exec code 
.text                   0x9d042cec         0x17fc        6140  App's exec code 
.text                   0x9d0444e8         0x14dc        5340  App's exec code 
.text                   0x9d0459c4         0x1400        5120  App's exec code 
.text                   0x9d046dc4         0x13a4        5028  App's exec code 
.text                   0x9d048168         0x126c        4716  App's exec code 
.text                   0x9d0493d4         0x1074        4212  App's exec code 
.text                   0x9d04a448          0xd58        3416  App's exec code 
.text                   0x9d04b1a0          0xd24        3364  App's exec code 
.text                   0x9d04bec4          0xc1c        3100  App's exec code 
.dinit                  0x9d04cae0          0x5e0        1504   
.text                   0x9d04d0c0          0xb58        2904  App's exec code 
.text                   0x9d04dc18          0x96c        2412  App's exec code 
.text                   0x9d04e584          0x874        2164  App's exec code 
.text                   0x9d04edf8          0x7a0        1952  App's exec code 
.text                   0x9d04f598          0x618        1560  App's exec code 
.text                   0x9d04fbb0          0x2dc         732  App's exec code 
.rodata                 0x9d04fe8c          0x2dc         732  Read-only const 
.text                   0x9d050168          0x2d4         724  App's exec code 
.text.fpsubadd          0x9d05043c          0x278         632   
.text                   0x9d0506b4          0x234         564  App's exec code 
.text.fp32div           0x9d0508e8          0x230         560   
.text                   0x9d050b18          0x1e8         488  App's exec code 
.text.fp32mul           0x9d050d00          0x1bc         444   
.text                   0x9d050ebc          0x348         840  App's exec code 
.text                   0x9d051204          0x2d0         720  App's exec code 
.text                   0x9d0514d4          0x120         288  App's exec code 
.rodata                 0x9d0515f4          0x108         264  Read-only const 
.text.strncpy           0x9d0516fc          0x100         256   
.text                   0x9d0517fc           0xdc         220  App's exec code 
.text.general_exception 0x9d0518d8           0xdc         220   
.text                   0x9d0519b4           0xc4         196  App's exec code 
.rodata                 0x9d051a78           0xb8         184  Read-only const 
.text                   0x9d051b30          0x158         344  App's exec code 
.text.fpcmp             0x9d051c88           0x9c         156   
.rodata                 0x9d051d24           0x8c         140  Read-only const 
.text                   0x9d051db0          0x108         264  App's exec code 
.text.fptoli            0x9d051eb8           0x80         128   
.text                   0x9d051f38           0x7c         124  App's exec code 
.text.fptoul            0x9d051fb4           0x7c         124   
.text                   0x9d052030           0xd4         212  App's exec code 
.text.sitofp            0x9d052104           0x60          96   
.rodata                 0x9d052164           0x58          88  Read-only const 
.text.main_entry        0x9d0521bc           0x54          84   
.rodata                 0x9d052210           0x50          80  Read-only const 
.text                   0x9d052260           0x4c          76  App's exec code 
.rodata                 0x9d0522ac           0x48          72  Read-only const 
.text._bootstrap_except 0x9d0522f4           0x48          72   
.text._general_exceptio 0x9d05233c           0x48          72   
.vector_default         0x9d052384           0x48          72   
.text                   0x9d0523cc           0x44          68  App's exec code 
.rodata                 0x9d052410           0x70         112  Read-only const 
.rodata                 0x9d052480           0x68         104  Read-only const 
.rodata                 0x9d0524e8           0x68         104  Read-only const 
.rodata                 0x9d052550           0x60          96  Read-only const 
.rodata                 0x9d0525b0           0x60          96  Read-only const 
.rodata                 0x9d052610           0x30          48  Read-only const 
.text                   0x9d052640           0x30          48  App's exec code 
.rodata                 0x9d052670           0x58          88  Read-only const 
.rodata                 0x9d0526c8           0x58          88  Read-only const 
.rodata                 0x9d052720           0x58          88  Read-only const 
.rodata                 0x9d052778           0x58          88  Read-only const 
.rodata                 0x9d0527d0           0x58          88  Read-only const 
.rodata                 0x9d052828           0x50          80  Read-only const 
.rodata                 0x9d052878           0x50          80  Read-only const 
.rodata                 0x9d0528c8           0x50          80  Read-only const 
.rodata                 0x9d052918           0x50          80  Read-only const 
.rodata                 0x9d052968           0x38          56  Read-only const 
.text                   0x9d0529a0           0x18          24  App's exec code 
.rodata                 0x9d0529b8           0x28          40  Read-only const 
.rodata                 0x9d0529e0           0x20          32  Read-only const 
.rodata                 0x9d052a00           0x20          32  Read-only const 
.rodata                 0x9d052a20           0x20          32  Read-only const 
.rodata                 0x9d052a40           0x20          32  Read-only const 
.rodata                 0x9d052a60            0x8           8  Read-only const 
.text._on_reset         0x9d052a68            0x8           8   
.text._on_bootstrap     0x9d052a70            0x8           8   
      Total kseg0_program_mem used  :     0x52a78      338552  64.6% of 0x80000

kseg0 Boot-Memory Usage
section                    address  length [bytes]      (dec)  Description
-------                 ----------  -------------------------  -----------
         Total kseg0_boot_mem used  :           0           0  <1% of 0x970

Exception-Memory Usage 
section                    address  length [bytes]      (dec)  Description
-------                 ----------  -------------------------  -----------
.app_excpt              0x9fc01180           0x10          16  General-Exception 
.vector_0               0x9fc01200            0x8           8  Interrupt Vector 0 
.vector_1               0x9fc01220            0x8           8  Interrupt Vector 1 
.vector_2               0x9fc01240            0x8           8  Interrupt Vector 2 
.vector_3               0x9fc01260            0x8           8  Interrupt Vector 3 
.vector_4               0x9fc01280            0x8           8  Interrupt Vector 4 
.vector_5               0x9fc012a0            0x8           8  Interrupt Vector 5 
.vector_6               0x9fc012c0            0x8           8  Interrupt Vector 6 
.vector_7               0x9fc012e0            0x8           8  Interrupt Vector 7 
.vector_8               0x9fc01300            0x8           8  Interrupt Vector 8 
.vector_9               0x9fc01320            0x8           8  Interrupt Vector 9 
.vector_10              0x9fc01340            0x8           8  Interrupt Vector 10 
.vector_11              0x9fc01360            0x8           8  Interrupt Vector 11 
.vector_12              0x9fc01380            0x8           8  Interrupt Vector 12 
.vector_13              0x9fc013a0            0x8           8  Interrupt Vector 13 
.vector_14              0x9fc013c0            0x8           8  Interrupt Vector 14 
.vector_15              0x9fc013e0            0x8           8  Interrupt Vector 15 
.vector_16              0x9fc01400            0x8           8  Interrupt Vector 16 
.vector_17              0x9fc01420            0x8           8  Interrupt Vector 17 
.vector_18              0x9fc01440            0x8           8  Interrupt Vector 18 
.vector_19              0x9fc01460            0x8           8  Interrupt Vector 19 
.vector_20              0x9fc01480            0x8           8  Interrupt Vector 20 
.vector_21              0x9fc014a0            0x8           8  Interrupt Vector 21 
.vector_22              0x9fc014c0            0x8           8  Interrupt Vector 22 
.vector_23              0x9fc014e0            0x8           8  Interrupt Vector 23 
.vector_24              0x9fc01500            0x8           8  Interrupt Vector 24 
.vector_25              0x9fc01520            0x8           8  Interrupt Vector 25 
.vector_26              0x9fc01540            0x8           8  Interrupt Vector 26 
.vector_27              0x9fc01560            0x8           8  Interrupt Vector 27 
.vector_28              0x9fc01580            0x8           8  Interrupt Vector 28 
.vector_29              0x9fc015a0            0x8           8  Interrupt Vector 29 
.vector_30              0x9fc015c0            0x8           8  Interrupt Vector 30 
.vector_31              0x9fc015e0            0x8           8  Interrupt Vector 31 
.vector_32              0x9fc01600            0x8           8  Interrupt Vector 32 
.vector_33              0x9fc01620            0x8           8  Interrupt Vector 33 
.vector_34              0x9fc01640            0x8           8  Interrupt Vector 34 
.vector_35              0x9fc01660            0x8           8  Interrupt Vector 35 
.vector_36              0x9fc01680            0x8           8  Interrupt Vector 36 
.vector_37              0x9fc016a0            0x8           8  Interrupt Vector 37 
.vector_38              0x9fc016c0            0x8           8  Interrupt Vector 38 
.vector_39              0x9fc016e0            0x8           8  Interrupt Vector 39 
.vector_40              0x9fc01700            0x8           8  Interrupt Vector 40 
.vector_41              0x9fc01720            0x8           8  Interrupt Vector 41 
.vector_42              0x9fc01740            0x8           8  Interrupt Vector 42 
.vector_43              0x9fc01760            0x8           8  Interrupt Vector 43 
.vector_44              0x9fc01780            0x8           8  Interrupt Vector 44 
.vector_45              0x9fc017a0            0x8           8  Interrupt Vector 45 
.vector_46              0x9fc017c0            0x8           8  Interrupt Vector 46 
.vector_47              0x9fc017e0            0x8           8  Interrupt Vector 47 
.vector_48              0x9fc01800            0x8           8  Interrupt Vector 48 
.vector_49              0x9fc01820            0x8           8  Interrupt Vector 49 
.vector_50              0x9fc01840            0x8           8  Interrupt Vector 50 
.vector_51              0x9fc01860            0x8           8  Interrupt Vector 51 
          Total exception_mem used  :       0x1b0         432  10.5% of 0x1000

kseg1 Boot-Memory Usage
section                    address  length [bytes]      (dec)  Description
-------                 ----------  -------------------------  -----------
.reset                  0xbfc00000          0x1a8         424  Reset handler 
.bev_excpt              0xbfc00380           0x10          16  BEV-Exception 
         Total kseg1_boot_mem used  :       0x1b8         440  37.7% of 0x490
        --------------------------------------------------------------------------
         Total Program Memory used  :     0x52de0      339424  63.8% of 0x81e00
        --------------------------------------------------------------------------


kseg1 Data-Memory Usage
section                    address  length [bytes]      (dec)  Description
-------                 ----------  -------------------------  -----------
.sdata                  0xa0000000           0x2c          44  Small init data 
.sbss                   0xa000002c          0x178         376  Small uninit data 
.bss                    0xa00001a4          0x3a0         928  Uninitialized data 
.bss                    0xa0000544         0x8640       34368  Uninitialized data 
.data                   0xa0008b84          0x290         656  Initialized data 
.data                   0xa0008e14           0x58          88  Initialized data 
.data                   0xa0008e6c           0x1c          28  Initialized data 
         Total kseg1_data_mem used  :      0x8e88       36488  27.8% of 0x20000
        --------------------------------------------------------------------------
            Total Data Memory used  :      0x8e88       36488  27.8% of 0x20000
        --------------------------------------------------------------------------


Dynamic Data-Memory Reservation
section                    address  length [bytes]      (dec)  Description
-------                 ----------  -------------------------  -----------
heap                    0xa0008e90           0x10          16  Reserved for heap 
stack                   0xa0008eb8        0x17140       94528  Reserved for stack 

        --------------------------------------------------------------------------

Discarded input sections

 .reginfo       0x00000000       0x18 d:/programas/microchip/xc32/v2.10/bin/bin/../../lib/gcc/pic32mx/4.8.3/../../../../pic32mx/lib\debug-exception-return.o
 .reginfo       0x00000000       0x18 build/default/production/lvgl/porting/lv_port_disp_template.o
 .reginfo       0x00000000       0x18 build/default/production/lvgl/porting/lv_port_fs_template.o
 .reginfo       0x00000000       0x18 build/default/production/lvgl/porting/lv_port_indev_template.o
 .reginfo       0x00000000       0x18 build/default/production/lvgl/src/lv_core/lv_debug.o
 .reginfo       0x00000000       0x18 build/default/production/lvgl/src/lv_core/lv_disp.o
 .reginfo       0x00000000       0x18 build/default/production/lvgl/src/lv_core/lv_group.o
 .reginfo       0x00000000       0x18 build/default/production/lvgl/src/lv_core/lv_indev.o
 .reginfo       0x00000000       0x18 build/default/production/lvgl/src/lv_core/lv_obj.o
 .reginfo       0x00000000       0x18 build/default/production/lvgl/src/lv_core/lv_refr.o
 .reginfo       0x00000000       0x18 build/default/production/lvgl/src/lv_core/lv_style.o
 .reginfo       0x00000000       0x18 build/default/production/lvgl/src/lv_draw/lv_draw.o
 .reginfo       0x00000000       0x18 build/default/production/lvgl/src/lv_draw/lv_draw_arc.o
 .reginfo       0x00000000       0x18 build/default/production/lvgl/src/lv_draw/lv_draw_basic.o
 .reginfo       0x00000000       0x18 build/default/production/lvgl/src/lv_draw/lv_draw_img.o
 .reginfo       0x00000000       0x18 build/default/production/lvgl/src/lv_draw/lv_draw_label.o
 .reginfo       0x00000000       0x18 build/default/production/lvgl/src/lv_draw/lv_draw_line.o
 .reginfo       0x00000000       0x18 build/default/production/lvgl/src/lv_draw/lv_draw_rect.o
 .reginfo       0x00000000       0x18 build/default/production/lvgl/src/lv_draw/lv_draw_triangle.o
 .reginfo       0x00000000       0x18 build/default/production/lvgl/src/lv_draw/lv_img_cache.o
 .reginfo       0x00000000       0x18 build/default/production/lvgl/src/lv_draw/lv_img_decoder.o
 .reginfo       0x00000000       0x18 build/default/production/lvgl/src/lv_font/lv_font.o
 .reginfo       0x00000000       0x18 build/default/production/lvgl/src/lv_font/lv_font_fmt_txt.o
 .reginfo       0x00000000       0x18 build/default/production/lvgl/src/lv_font/lv_font_roboto_12.o
 .reginfo       0x00000000       0x18 build/default/production/lvgl/src/lv_font/lv_font_roboto_12_subpx.o
 .reginfo       0x00000000       0x18 build/default/production/lvgl/src/lv_font/lv_font_roboto_16.o
 .reginfo       0x00000000       0x18 build/default/production/lvgl/src/lv_font/lv_font_roboto_22.o
 .reginfo       0x00000000       0x18 build/default/production/lvgl/src/lv_font/lv_font_roboto_28.o
 .reginfo       0x00000000       0x18 build/default/production/lvgl/src/lv_font/lv_font_roboto_28_compressed.o
 .reginfo       0x00000000       0x18 build/default/production/lvgl/src/lv_font/lv_font_unscii_8.o
 .reginfo       0x00000000       0x18 build/default/production/lvgl/src/lv_hal/lv_hal_disp.o
 .reginfo       0x00000000       0x18 build/default/production/lvgl/src/lv_hal/lv_hal_indev.o
 .reginfo       0x00000000       0x18 build/default/production/lvgl/src/lv_hal/lv_hal_tick.o
 .reginfo       0x00000000       0x18 build/default/production/lvgl/src/lv_misc/lv_anim.o
 .reginfo       0x00000000       0x18 build/default/production/lvgl/src/lv_misc/lv_area.o
 .reginfo       0x00000000       0x18 build/default/production/lvgl/src/lv_misc/lv_async.o
 .reginfo       0x00000000       0x18 build/default/production/lvgl/src/lv_misc/lv_bidi.o
 .reginfo       0x00000000       0x18 build/default/production/lvgl/src/lv_misc/lv_circ.o
 .reginfo       0x00000000       0x18 build/default/production/lvgl/src/lv_misc/lv_color.o
 .reginfo       0x00000000       0x18 build/default/production/lvgl/src/lv_misc/lv_fs.o
 .reginfo       0x00000000       0x18 build/default/production/lvgl/src/lv_misc/lv_gc.o
 .reginfo       0x00000000       0x18 build/default/production/lvgl/src/lv_misc/lv_ll.o
 .reginfo       0x00000000       0x18 build/default/production/lvgl/src/lv_misc/lv_log.o
 .reginfo       0x00000000       0x18 build/default/production/lvgl/src/lv_misc/lv_math.o
 .reginfo       0x00000000       0x18 build/default/production/lvgl/src/lv_misc/lv_mem.o
 .reginfo       0x00000000       0x18 build/default/production/lvgl/src/lv_misc/lv_printf.o
 .reginfo       0x00000000       0x18 build/default/production/lvgl/src/lv_misc/lv_task.o
 .reginfo       0x00000000       0x18 build/default/production/lvgl/src/lv_misc/lv_templ.o
 .reginfo       0x00000000       0x18 build/default/production/lvgl/src/lv_misc/lv_txt.o
 .reginfo       0x00000000       0x18 build/default/production/lvgl/src/lv_misc/lv_utils.o
 .reginfo       0x00000000       0x18 build/default/production/lvgl/src/lv_objx/lv_arc.o
 .reginfo       0x00000000       0x18 build/default/production/lvgl/src/lv_objx/lv_bar.o
 .reginfo       0x00000000       0x18 build/default/production/lvgl/src/lv_objx/lv_btn.o
 .reginfo       0x00000000       0x18 build/default/production/lvgl/src/lv_objx/lv_btnm.o
 .reginfo       0x00000000       0x18 build/default/production/lvgl/src/lv_objx/lv_calendar.o
 .reginfo       0x00000000       0x18 build/default/production/lvgl/src/lv_objx/lv_canvas.o
 .reginfo       0x00000000       0x18 build/default/production/lvgl/src/lv_objx/lv_cb.o
 .reginfo       0x00000000       0x18 build/default/production/lvgl/src/lv_objx/lv_chart.o
 .reginfo       0x00000000       0x18 build/default/production/lvgl/src/lv_objx/lv_cont.o
 .reginfo       0x00000000       0x18 build/default/production/lvgl/src/lv_objx/lv_cpicker.o
 .reginfo       0x00000000       0x18 build/default/production/lvgl/src/lv_objx/lv_ddlist.o
 .reginfo       0x00000000       0x18 build/default/production/lvgl/src/lv_objx/lv_gauge.o
 .reginfo       0x00000000       0x18 build/default/production/lvgl/src/lv_objx/lv_img.o
 .reginfo       0x00000000       0x18 build/default/production/lvgl/src/lv_objx/lv_imgbtn.o
 .reginfo       0x00000000       0x18 build/default/production/lvgl/src/lv_objx/lv_kb.o
 .reginfo       0x00000000       0x18 build/default/production/lvgl/src/lv_objx/lv_label.o
 .reginfo       0x00000000       0x18 build/default/production/lvgl/src/lv_objx/lv_led.o
 .reginfo       0x00000000       0x18 build/default/production/lvgl/src/lv_objx/lv_line.o
 .reginfo       0x00000000       0x18 build/default/production/lvgl/src/lv_objx/lv_list.o
 .reginfo       0x00000000       0x18 build/default/production/lvgl/src/lv_objx/lv_lmeter.o
 .reginfo       0x00000000       0x18 build/default/production/lvgl/src/lv_objx/lv_mbox.o
 .reginfo       0x00000000       0x18 build/default/production/lvgl/src/lv_objx/lv_objx_templ.o
 .reginfo       0x00000000       0x18 build/default/production/lvgl/src/lv_objx/lv_page.o
 .reginfo       0x00000000       0x18 build/default/production/lvgl/src/lv_objx/lv_preload.o
 .reginfo       0x00000000       0x18 build/default/production/lvgl/src/lv_objx/lv_roller.o
 .reginfo       0x00000000       0x18 build/default/production/lvgl/src/lv_objx/lv_slider.o
 .reginfo       0x00000000       0x18 build/default/production/lvgl/src/lv_objx/lv_spinbox.o
 .reginfo       0x00000000       0x18 build/default/production/lvgl/src/lv_objx/lv_sw.o
 .reginfo       0x00000000       0x18 build/default/production/lvgl/src/lv_objx/lv_ta.o
 .reginfo       0x00000000       0x18 build/default/production/lvgl/src/lv_objx/lv_table.o
 .reginfo       0x00000000       0x18 build/default/production/lvgl/src/lv_objx/lv_tabview.o
 .reginfo       0x00000000       0x18 build/default/production/lvgl/src/lv_objx/lv_tileview.o
 .reginfo       0x00000000       0x18 build/default/production/lvgl/src/lv_objx/lv_win.o
 .reginfo       0x00000000       0x18 build/default/production/lvgl/src/lv_themes/lv_theme.o
 .reginfo       0x00000000       0x18 build/default/production/lvgl/src/lv_themes/lv_theme_alien.o
 .reginfo       0x00000000       0x18 build/default/production/lvgl/src/lv_themes/lv_theme_default.o
 .reginfo       0x00000000       0x18 build/default/production/lvgl/src/lv_themes/lv_theme_material.o
 .reginfo       0x00000000       0x18 build/default/production/lvgl/src/lv_themes/lv_theme_mono.o
 .reginfo       0x00000000       0x18 build/default/production/lvgl/src/lv_themes/lv_theme_nemo.o
 .reginfo       0x00000000       0x18 build/default/production/lvgl/src/lv_themes/lv_theme_night.o
 .reginfo       0x00000000       0x18 build/default/production/lvgl/src/lv_themes/lv_theme_templ.o
 .reginfo       0x00000000       0x18 build/default/production/lvgl/src/lv_themes/lv_theme_zen.o
 .reginfo       0x00000000       0x18 build/default/production/main.o
 .reginfo       0x00000000       0x18 build/default/production/RA8875.o
 .reginfo       0x00000000       0x18 build/default/production/delay.o
 .reginfo       0x00000000       0x18 build/default/production/uart.o
 .reginfo       0x00000000       0x18 d:/programas/microchip/xc32/v2.10/bin/bin/../../lib/gcc/pic32mx/4.8.3/../../../../pic32mx/lib/./proc/32MX795F512H\default_isr_vectors.o
 .discard       0x00000000       0xd0 d:/programas/microchip/xc32/v2.10/bin/bin/../../lib/gcc/pic32mx/4.8.3/../../../../pic32mx/lib/./proc/32MX795F512H\default_isr_vectors.o
 .reginfo       0x00000000       0x18 d:/programas/microchip/xc32/v2.10/bin/bin/../../lib/gcc/pic32mx/4.8.3/../../../../pic32mx/lib\pic32_software_reset.o
 .reginfo       0x00000000       0x18 d:/programas/microchip/xc32/v2.10/bin/bin/../../lib/gcc/pic32mx/4.8.3/../../../../pic32mx/lib/./proc/32MX795F512H\processor.o
 .reginfo       0x00000000       0x18 d:/programas/microchip/xc32/v2.10/bin/bin/../../lib/gcc/pic32mx/4.8.3\libgcc.a(_udivdi3.o)
 .reginfo       0x00000000       0x18 d:/programas/microchip/xc32/v2.10/bin/bin/../../lib/gcc/pic32mx/4.8.3\libgcc.a(_umoddi3.o)
 .reginfo       0x00000000       0x18 d:/programas/microchip/xc32/v2.10/bin/bin/../../lib/gcc/pic32mx/4.8.3\libgcc.a(floatunsisf.o)
 .reginfo       0x00000000       0x18 d:/programas/microchip/xc32/v2.10/bin/bin/../../lib/gcc/pic32mx/4.8.3/../../../../pic32mx/lib\libpic32.a(memcpy.o)
 .reginfo       0x00000000       0x18 d:/programas/microchip/xc32/v2.10/bin/bin/../../lib/gcc/pic32mx/4.8.3/../../../../pic32mx/lib\libpic32.a(memset.o)
 .reginfo       0x00000000       0x18 d:/programas/microchip/xc32/v2.10/bin/bin/../../lib/gcc/pic32mx/4.8.3/../../../../pic32mx/lib\libpic32.a(strcmp.o)
 .reginfo       0x00000000       0x18 d:/programas/microchip/xc32/v2.10/bin/bin/../../lib/gcc/pic32mx/4.8.3/../../../../pic32mx/lib\libpic32.a(strcpy.o)
 .reginfo       0x00000000       0x18 d:/programas/microchip/xc32/v2.10/bin/bin/../../lib/gcc/pic32mx/4.8.3/../../../../pic32mx/lib\libpic32.a(strlen.o)
 .reginfo       0x00000000       0x18 d:/programas/microchip/xc32/v2.10/bin/bin/../../lib/gcc/pic32mx/4.8.3/../../../../pic32mx/lib\libpic32.a(default-bootstrap-exception-handler.o)
 .reginfo       0x00000000       0x18 d:/programas/microchip/xc32/v2.10/bin/bin/../../lib/gcc/pic32mx/4.8.3/../../../../pic32mx/lib\libpic32.a(default-on-reset.o)
 .reginfo       0x00000000       0x18 d:/programas/microchip/xc32/v2.10/bin/bin/../../lib/gcc/pic32mx/4.8.3/../../../../pic32mx/lib\libpic32.a(default-on-bootstrap.o)
 .reginfo       0x00000000       0x18 d:/programas/microchip/xc32/v2.10/bin/bin/../../lib/gcc/pic32mx/4.8.3/../../../../pic32mx/lib\libpic32.a(default-nmi-handler.o)
 .reginfo       0x00000000       0x18 d:/programas/microchip/xc32/v2.10/bin/bin/../../lib/gcc/pic32mx/4.8.3/../../../../pic32mx/lib\libpic32.a(pic32_data_init.o)
 .reginfo       0x00000000       0x18 d:/programas/microchip/xc32/v2.10/bin/bin/../../lib/gcc/pic32mx/4.8.3/../../../../pic32mx/lib\libpic32.a(general-exception.o)
 .reginfo       0x00000000       0x18 d:/programas/microchip/xc32/v2.10/bin/bin/../../lib/gcc/pic32mx/4.8.3/../../../../pic32mx/lib\libpic32.a(vector0.o)
 .reginfo       0x00000000       0x18 d:/programas/microchip/xc32/v2.10/bin/bin/../../lib/gcc/pic32mx/4.8.3/../../../../pic32mx/lib\libpic32.a(vector1.o)
 .reginfo       0x00000000       0x18 d:/programas/microchip/xc32/v2.10/bin/bin/../../lib/gcc/pic32mx/4.8.3/../../../../pic32mx/lib\libpic32.a(vector2.o)
 .reginfo       0x00000000       0x18 d:/programas/microchip/xc32/v2.10/bin/bin/../../lib/gcc/pic32mx/4.8.3/../../../../pic32mx/lib\libpic32.a(vector3.o)
 .reginfo       0x00000000       0x18 d:/programas/microchip/xc32/v2.10/bin/bin/../../lib/gcc/pic32mx/4.8.3/../../../../pic32mx/lib\libpic32.a(vector5.o)
 .reginfo       0x00000000       0x18 d:/programas/microchip/xc32/v2.10/bin/bin/../../lib/gcc/pic32mx/4.8.3/../../../../pic32mx/lib\libpic32.a(vector6.o)
 .reginfo       0x00000000       0x18 d:/programas/microchip/xc32/v2.10/bin/bin/../../lib/gcc/pic32mx/4.8.3/../../../../pic32mx/lib\libpic32.a(vector7.o)
 .reginfo       0x00000000       0x18 d:/programas/microchip/xc32/v2.10/bin/bin/../../lib/gcc/pic32mx/4.8.3/../../../../pic32mx/lib\libpic32.a(vector8.o)
 .reginfo       0x00000000       0x18 d:/programas/microchip/xc32/v2.10/bin/bin/../../lib/gcc/pic32mx/4.8.3/../../../../pic32mx/lib\libpic32.a(vector9.o)
 .reginfo       0x00000000       0x18 d:/programas/microchip/xc32/v2.10/bin/bin/../../lib/gcc/pic32mx/4.8.3/../../../../pic32mx/lib\libpic32.a(vector10.o)
 .reginfo       0x00000000       0x18 d:/programas/microchip/xc32/v2.10/bin/bin/../../lib/gcc/pic32mx/4.8.3/../../../../pic32mx/lib\libpic32.a(vector11.o)
 .reginfo       0x00000000       0x18 d:/programas/microchip/xc32/v2.10/bin/bin/../../lib/gcc/pic32mx/4.8.3/../../../../pic32mx/lib\libpic32.a(vector12.o)
 .reginfo       0x00000000       0x18 d:/programas/microchip/xc32/v2.10/bin/bin/../../lib/gcc/pic32mx/4.8.3/../../../../pic32mx/lib\libpic32.a(vector13.o)
 .reginfo       0x00000000       0x18 d:/programas/microchip/xc32/v2.10/bin/bin/../../lib/gcc/pic32mx/4.8.3/../../../../pic32mx/lib\libpic32.a(vector14.o)
 .reginfo       0x00000000       0x18 d:/programas/microchip/xc32/v2.10/bin/bin/../../lib/gcc/pic32mx/4.8.3/../../../../pic32mx/lib\libpic32.a(vector15.o)
 .reginfo       0x00000000       0x18 d:/programas/microchip/xc32/v2.10/bin/bin/../../lib/gcc/pic32mx/4.8.3/../../../../pic32mx/lib\libpic32.a(vector16.o)
 .reginfo       0x00000000       0x18 d:/programas/microchip/xc32/v2.10/bin/bin/../../lib/gcc/pic32mx/4.8.3/../../../../pic32mx/lib\libpic32.a(vector17.o)
 .reginfo       0x00000000       0x18 d:/programas/microchip/xc32/v2.10/bin/bin/../../lib/gcc/pic32mx/4.8.3/../../../../pic32mx/lib\libpic32.a(vector18.o)
 .reginfo       0x00000000       0x18 d:/programas/microchip/xc32/v2.10/bin/bin/../../lib/gcc/pic32mx/4.8.3/../../../../pic32mx/lib\libpic32.a(vector19.o)
 .reginfo       0x00000000       0x18 d:/programas/microchip/xc32/v2.10/bin/bin/../../lib/gcc/pic32mx/4.8.3/../../../../pic32mx/lib\libpic32.a(vector20.o)
 .reginfo       0x00000000       0x18 d:/programas/microchip/xc32/v2.10/bin/bin/../../lib/gcc/pic32mx/4.8.3/../../../../pic32mx/lib\libpic32.a(vector21.o)
 .reginfo       0x00000000       0x18 d:/programas/microchip/xc32/v2.10/bin/bin/../../lib/gcc/pic32mx/4.8.3/../../../../pic32mx/lib\libpic32.a(vector22.o)
 .reginfo       0x00000000       0x18 d:/programas/microchip/xc32/v2.10/bin/bin/../../lib/gcc/pic32mx/4.8.3/../../../../pic32mx/lib\libpic32.a(vector23.o)
 .reginfo       0x00000000       0x18 d:/programas/microchip/xc32/v2.10/bin/bin/../../lib/gcc/pic32mx/4.8.3/../../../../pic32mx/lib\libpic32.a(vector24.o)
 .reginfo       0x00000000       0x18 d:/programas/microchip/xc32/v2.10/bin/bin/../../lib/gcc/pic32mx/4.8.3/../../../../pic32mx/lib\libpic32.a(vector25.o)
 .reginfo       0x00000000       0x18 d:/programas/microchip/xc32/v2.10/bin/bin/../../lib/gcc/pic32mx/4.8.3/../../../../pic32mx/lib\libpic32.a(vector26.o)
 .reginfo       0x00000000       0x18 d:/programas/microchip/xc32/v2.10/bin/bin/../../lib/gcc/pic32mx/4.8.3/../../../../pic32mx/lib\libpic32.a(vector27.o)
 .reginfo       0x00000000       0x18 d:/programas/microchip/xc32/v2.10/bin/bin/../../lib/gcc/pic32mx/4.8.3/../../../../pic32mx/lib\libpic32.a(vector28.o)
 .reginfo       0x00000000       0x18 d:/programas/microchip/xc32/v2.10/bin/bin/../../lib/gcc/pic32mx/4.8.3/../../../../pic32mx/lib\libpic32.a(vector29.o)
 .reginfo       0x00000000       0x18 d:/programas/microchip/xc32/v2.10/bin/bin/../../lib/gcc/pic32mx/4.8.3/../../../../pic32mx/lib\libpic32.a(vector30.o)
 .reginfo       0x00000000       0x18 d:/programas/microchip/xc32/v2.10/bin/bin/../../lib/gcc/pic32mx/4.8.3/../../../../pic32mx/lib\libpic32.a(vector31.o)
 .reginfo       0x00000000       0x18 d:/programas/microchip/xc32/v2.10/bin/bin/../../lib/gcc/pic32mx/4.8.3/../../../../pic32mx/lib\libpic32.a(vector32.o)
 .reginfo       0x00000000       0x18 d:/programas/microchip/xc32/v2.10/bin/bin/../../lib/gcc/pic32mx/4.8.3/../../../../pic32mx/lib\libpic32.a(vector33.o)
 .reginfo       0x00000000       0x18 d:/programas/microchip/xc32/v2.10/bin/bin/../../lib/gcc/pic32mx/4.8.3/../../../../pic32mx/lib\libpic32.a(vector34.o)
 .reginfo       0x00000000       0x18 d:/programas/microchip/xc32/v2.10/bin/bin/../../lib/gcc/pic32mx/4.8.3/../../../../pic32mx/lib\libpic32.a(vector35.o)
 .reginfo       0x00000000       0x18 d:/programas/microchip/xc32/v2.10/bin/bin/../../lib/gcc/pic32mx/4.8.3/../../../../pic32mx/lib\libpic32.a(vector36.o)
 .reginfo       0x00000000       0x18 d:/programas/microchip/xc32/v2.10/bin/bin/../../lib/gcc/pic32mx/4.8.3/../../../../pic32mx/lib\libpic32.a(vector37.o)
 .reginfo       0x00000000       0x18 d:/programas/microchip/xc32/v2.10/bin/bin/../../lib/gcc/pic32mx/4.8.3/../../../../pic32mx/lib\libpic32.a(vector38.o)
 .reginfo       0x00000000       0x18 d:/programas/microchip/xc32/v2.10/bin/bin/../../lib/gcc/pic32mx/4.8.3/../../../../pic32mx/lib\libpic32.a(vector39.o)
 .reginfo       0x00000000       0x18 d:/programas/microchip/xc32/v2.10/bin/bin/../../lib/gcc/pic32mx/4.8.3/../../../../pic32mx/lib\libpic32.a(vector40.o)
 .reginfo       0x00000000       0x18 d:/programas/microchip/xc32/v2.10/bin/bin/../../lib/gcc/pic32mx/4.8.3/../../../../pic32mx/lib\libpic32.a(vector41.o)
 .reginfo       0x00000000       0x18 d:/programas/microchip/xc32/v2.10/bin/bin/../../lib/gcc/pic32mx/4.8.3/../../../../pic32mx/lib\libpic32.a(vector42.o)
 .reginfo       0x00000000       0x18 d:/programas/microchip/xc32/v2.10/bin/bin/../../lib/gcc/pic32mx/4.8.3/../../../../pic32mx/lib\libpic32.a(vector43.o)
 .reginfo       0x00000000       0x18 d:/programas/microchip/xc32/v2.10/bin/bin/../../lib/gcc/pic32mx/4.8.3/../../../../pic32mx/lib\libpic32.a(vector44.o)
 .reginfo       0x00000000       0x18 d:/programas/microchip/xc32/v2.10/bin/bin/../../lib/gcc/pic32mx/4.8.3/../../../../pic32mx/lib\libpic32.a(vector45.o)
 .reginfo       0x00000000       0x18 d:/programas/microchip/xc32/v2.10/bin/bin/../../lib/gcc/pic32mx/4.8.3/../../../../pic32mx/lib\libpic32.a(vector46.o)
 .reginfo       0x00000000       0x18 d:/programas/microchip/xc32/v2.10/bin/bin/../../lib/gcc/pic32mx/4.8.3/../../../../pic32mx/lib\libpic32.a(vector47.o)
 .reginfo       0x00000000       0x18 d:/programas/microchip/xc32/v2.10/bin/bin/../../lib/gcc/pic32mx/4.8.3/../../../../pic32mx/lib\libpic32.a(vector48.o)
 .reginfo       0x00000000       0x18 d:/programas/microchip/xc32/v2.10/bin/bin/../../lib/gcc/pic32mx/4.8.3/../../../../pic32mx/lib\libpic32.a(vector49.o)
 .reginfo       0x00000000       0x18 d:/programas/microchip/xc32/v2.10/bin/bin/../../lib/gcc/pic32mx/4.8.3/../../../../pic32mx/lib\libpic32.a(vector50.o)
 .reginfo       0x00000000       0x18 d:/programas/microchip/xc32/v2.10/bin/bin/../../lib/gcc/pic32mx/4.8.3/../../../../pic32mx/lib\libpic32.a(vector51.o)
 .reginfo       0x00000000       0x18 d:/programas/microchip/xc32/v2.10/bin/bin/../../lib/gcc/pic32mx/4.8.3/../../../../pic32mx/lib\libpic32.a(default-general-exception-handler.o)
 .reginfo       0x00000000       0x18 d:/programas/microchip/xc32/v2.10/bin/bin/../../lib/gcc/pic32mx/4.8.3/../../../../pic32mx/lib\libpic32.a(defaultinterrupt.o)
 .reginfo       0x00000000       0x18 d:/programas/microchip/xc32/v2.10/bin/bin/../../lib/gcc/pic32mx/4.8.3/../../../../pic32mx/lib\liblega-c.a(strncpy.o)
 .reginfo       0x00000000       0x18 d:/programas/microchip/xc32/v2.10/bin/bin/../../lib/gcc/pic32mx/4.8.3/../../../../pic32mx/lib\libm.a(fp32div.o)
 .reginfo       0x00000000       0x18 d:/programas/microchip/xc32/v2.10/bin/bin/../../lib/gcc/pic32mx/4.8.3/../../../../pic32mx/lib\libm.a(fp32mul.o)
 .reginfo       0x00000000       0x18 d:/programas/microchip/xc32/v2.10/bin/bin/../../lib/gcc/pic32mx/4.8.3/../../../../pic32mx/lib\libm.a(fp32subadd.o)
 .reginfo       0x00000000       0x18 d:/programas/microchip/xc32/v2.10/bin/bin/../../lib/gcc/pic32mx/4.8.3/../../../../pic32mx/lib\libm.a(fpcmp.o)
 .reginfo       0x00000000       0x18 d:/programas/microchip/xc32/v2.10/bin/bin/../../lib/gcc/pic32mx/4.8.3/../../../../pic32mx/lib\libm.a(fptoli.o)
 .reginfo       0x00000000       0x18 d:/programas/microchip/xc32/v2.10/bin/bin/../../lib/gcc/pic32mx/4.8.3/../../../../pic32mx/lib\libm.a(fptoul.o)
 .reginfo       0x00000000       0x18 d:/programas/microchip/xc32/v2.10/bin/bin/../../lib/gcc/pic32mx/4.8.3/../../../../pic32mx/lib\libm.a(sitofp.o)

Memory Configuration

Name             Origin             Length             Attributes
kseg0_program_mem 0x9d000000         0x00080000         xr
kseg0_boot_mem   0x9fc00490         0x00000970
exception_mem    0x9fc01000         0x00001000
kseg1_boot_mem   0xbfc00000         0x00000490
debug_exec_mem   0xbfc02000         0x00000ff0
config3          0xbfc02ff0         0x00000004
config2          0xbfc02ff4         0x00000004
config1          0xbfc02ff8         0x00000004
config0          0xbfc02ffc         0x00000004
kseg1_data_mem   0xa0000000         0x00020000         w !x
sfrs             0xbf800000         0x00100000
configsfrs       0xbfc02ff0         0x00000010
*default*        0x00000000         0xffffffff

Linker script and memory map

LOAD d:/programas/microchip/xc32/v2.10/bin/bin/../../lib/gcc/pic32mx/4.8.3/../../../../pic32mx/lib/./proc/32MX795F512H/crt0_mips32r2.o
LOAD d:/programas/microchip/xc32/v2.10/bin/bin/../../lib/gcc/pic32mx/4.8.3/../../../../pic32mx/lib\debug-exception-return.o
LOAD build/default/production/lvgl/porting/lv_port_disp_template.o
LOAD build/default/production/lvgl/porting/lv_port_fs_template.o
LOAD build/default/production/lvgl/porting/lv_port_indev_template.o
LOAD build/default/production/lvgl/src/lv_core/lv_debug.o
LOAD build/default/production/lvgl/src/lv_core/lv_disp.o
LOAD build/default/production/lvgl/src/lv_core/lv_group.o
LOAD build/default/production/lvgl/src/lv_core/lv_indev.o
LOAD build/default/production/lvgl/src/lv_core/lv_obj.o
LOAD build/default/production/lvgl/src/lv_core/lv_refr.o
LOAD build/default/production/lvgl/src/lv_core/lv_style.o
LOAD build/default/production/lvgl/src/lv_draw/lv_draw.o
LOAD build/default/production/lvgl/src/lv_draw/lv_draw_arc.o
LOAD build/default/production/lvgl/src/lv_draw/lv_draw_basic.o
LOAD build/default/production/lvgl/src/lv_draw/lv_draw_img.o
LOAD build/default/production/lvgl/src/lv_draw/lv_draw_label.o
LOAD build/default/production/lvgl/src/lv_draw/lv_draw_line.o
LOAD build/default/production/lvgl/src/lv_draw/lv_draw_rect.o
LOAD build/default/production/lvgl/src/lv_draw/lv_draw_triangle.o
LOAD build/default/production/lvgl/src/lv_draw/lv_img_cache.o
LOAD build/default/production/lvgl/src/lv_draw/lv_img_decoder.o
LOAD build/default/production/lvgl/src/lv_font/lv_font.o
LOAD build/default/production/lvgl/src/lv_font/lv_font_fmt_txt.o
LOAD build/default/production/lvgl/src/lv_font/lv_font_roboto_12.o
LOAD build/default/production/lvgl/src/lv_font/lv_font_roboto_12_subpx.o
LOAD build/default/production/lvgl/src/lv_font/lv_font_roboto_16.o
LOAD build/default/production/lvgl/src/lv_font/lv_font_roboto_22.o
LOAD build/default/production/lvgl/src/lv_font/lv_font_roboto_28.o
LOAD build/default/production/lvgl/src/lv_font/lv_font_roboto_28_compressed.o
LOAD build/default/production/lvgl/src/lv_font/lv_font_unscii_8.o
LOAD build/default/production/lvgl/src/lv_hal/lv_hal_disp.o
LOAD build/default/production/lvgl/src/lv_hal/lv_hal_indev.o
LOAD build/default/production/lvgl/src/lv_hal/lv_hal_tick.o
LOAD build/default/production/lvgl/src/lv_misc/lv_anim.o
LOAD build/default/production/lvgl/src/lv_misc/lv_area.o
LOAD build/default/production/lvgl/src/lv_misc/lv_async.o
LOAD build/default/production/lvgl/src/lv_misc/lv_bidi.o
LOAD build/default/production/lvgl/src/lv_misc/lv_circ.o
LOAD build/default/production/lvgl/src/lv_misc/lv_color.o
LOAD build/default/production/lvgl/src/lv_misc/lv_fs.o
LOAD build/default/production/lvgl/src/lv_misc/lv_gc.o
LOAD build/default/production/lvgl/src/lv_misc/lv_ll.o
LOAD build/default/production/lvgl/src/lv_misc/lv_log.o
LOAD build/default/production/lvgl/src/lv_misc/lv_math.o
LOAD build/default/production/lvgl/src/lv_misc/lv_mem.o
LOAD build/default/production/lvgl/src/lv_misc/lv_printf.o
LOAD build/default/production/lvgl/src/lv_misc/lv_task.o
LOAD build/default/production/lvgl/src/lv_misc/lv_templ.o
LOAD build/default/production/lvgl/src/lv_misc/lv_txt.o
LOAD build/default/production/lvgl/src/lv_misc/lv_utils.o
LOAD build/default/production/lvgl/src/lv_objx/lv_arc.o
LOAD build/default/production/lvgl/src/lv_objx/lv_bar.o
LOAD build/default/production/lvgl/src/lv_objx/lv_btn.o
LOAD build/default/production/lvgl/src/lv_objx/lv_btnm.o
LOAD build/default/production/lvgl/src/lv_objx/lv_calendar.o
LOAD build/default/production/lvgl/src/lv_objx/lv_canvas.o
LOAD build/default/production/lvgl/src/lv_objx/lv_cb.o
LOAD build/default/production/lvgl/src/lv_objx/lv_chart.o
LOAD build/default/production/lvgl/src/lv_objx/lv_cont.o
LOAD build/default/production/lvgl/src/lv_objx/lv_cpicker.o
LOAD build/default/production/lvgl/src/lv_objx/lv_ddlist.o
LOAD build/default/production/lvgl/src/lv_objx/lv_gauge.o
LOAD build/default/production/lvgl/src/lv_objx/lv_img.o
LOAD build/default/production/lvgl/src/lv_objx/lv_imgbtn.o
LOAD build/default/production/lvgl/src/lv_objx/lv_kb.o
LOAD build/default/production/lvgl/src/lv_objx/lv_label.o
LOAD build/default/production/lvgl/src/lv_objx/lv_led.o
LOAD build/default/production/lvgl/src/lv_objx/lv_line.o
LOAD build/default/production/lvgl/src/lv_objx/lv_list.o
LOAD build/default/production/lvgl/src/lv_objx/lv_lmeter.o
LOAD build/default/production/lvgl/src/lv_objx/lv_mbox.o
LOAD build/default/production/lvgl/src/lv_objx/lv_objx_templ.o
LOAD build/default/production/lvgl/src/lv_objx/lv_page.o
LOAD build/default/production/lvgl/src/lv_objx/lv_preload.o
LOAD build/default/production/lvgl/src/lv_objx/lv_roller.o
LOAD build/default/production/lvgl/src/lv_objx/lv_slider.o
LOAD build/default/production/lvgl/src/lv_objx/lv_spinbox.o
LOAD build/default/production/lvgl/src/lv_objx/lv_sw.o
LOAD build/default/production/lvgl/src/lv_objx/lv_ta.o
LOAD build/default/production/lvgl/src/lv_objx/lv_table.o
LOAD build/default/production/lvgl/src/lv_objx/lv_tabview.o
LOAD build/default/production/lvgl/src/lv_objx/lv_tileview.o
LOAD build/default/production/lvgl/src/lv_objx/lv_win.o
LOAD build/default/production/lvgl/src/lv_themes/lv_theme.o
LOAD build/default/production/lvgl/src/lv_themes/lv_theme_alien.o
LOAD build/default/production/lvgl/src/lv_themes/lv_theme_default.o
LOAD build/default/production/lvgl/src/lv_themes/lv_theme_material.o
LOAD build/default/production/lvgl/src/lv_themes/lv_theme_mono.o
LOAD build/default/production/lvgl/src/lv_themes/lv_theme_nemo.o
LOAD build/default/production/lvgl/src/lv_themes/lv_theme_night.o
LOAD build/default/production/lvgl/src/lv_themes/lv_theme_templ.o
LOAD build/default/production/lvgl/src/lv_themes/lv_theme_zen.o
LOAD build/default/production/main.o
LOAD build/default/production/RA8875.o
LOAD build/default/production/delay.o
LOAD build/default/production/uart.o
                0x00000001                __MPLAB_BUILD = 0x1
LOAD d:/programas/microchip/xc32/v2.10/bin/bin/../../lib/gcc/pic32mx/4.8.3/../../../../pic32mx/lib/./proc/32MX795F512H\default_isr_vectors.o
LOAD d:/programas/microchip/xc32/v2.10/bin/bin/../../lib/gcc/pic32mx/4.8.3/../../../../pic32mx/lib\pic32_software_reset.o
                0x00000400                PROVIDE (_min_stack_size, 0x400)
LOAD d:/programas/microchip/xc32/v2.10/bin/bin/../../lib/gcc/pic32mx/4.8.3/../../../../pic32mx/lib/./proc/32MX795F512H\processor.o
START GROUP
LOAD d:/programas/microchip/xc32/v2.10/bin/bin/../../lib/gcc/pic32mx/4.8.3/../../../../pic32mx/lib\libmchp_peripheral.a
END GROUP
START GROUP
LOAD d:/programas/microchip/xc32/v2.10/bin/bin/../../lib/gcc/pic32mx/4.8.3/../../../../pic32mx/lib\libmchp_peripheral_32MX795F512H.a
END GROUP
                0x00000001                PROVIDE (_vector_spacing, 0x1)
                0x9fc01000                PROVIDE (_ebase_address, 0x9fc01000)
                0xbfc00000                _RESET_ADDR = 0xbfc00000
                0xbfc00380                _BEV_EXCPT_ADDR = 0xbfc00380
                0xbfc00480                _DBG_EXCPT_ADDR = 0xbfc00480
                0xbfc02000                _DBG_CODE_ADDR = 0xbfc02000
                0x00000ff0                _DBG_CODE_SIZE = 0xff0
                0x9fc01180                _GEN_EXCPT_ADDR = (_ebase_address + 0x180)

.config_BFC02FF0
                0xbfc02ff0        0x4
 *(.config_BFC02FF0)
 .config_BFC02FF0
                0xbfc02ff0        0x4 build/default/production/main.o

.config_BFC02FF4
                0xbfc02ff4        0x4
 *(.config_BFC02FF4)
 .config_BFC02FF4
                0xbfc02ff4        0x4 build/default/production/main.o

.config_BFC02FF8
                0xbfc02ff8        0x4
 *(.config_BFC02FF8)
 .config_BFC02FF8
                0xbfc02ff8        0x4 build/default/production/main.o

.config_BFC02FFC
                0xbfc02ffc        0x4
 *(.config_BFC02FFC)
 .config_BFC02FFC
                0xbfc02ffc        0x4 build/default/production/main.o
                0xbfc02000                PROVIDE (_DBG_CODE_ADDR, 0xbfc02000)
                0x00000ff0                PROVIDE (_DBG_CODE_SIZE, 0xff0)

.reset          0xbfc00000      0x1a8
 *(.reset)
 .reset         0xbfc00000        0x8 d:/programas/microchip/xc32/v2.10/bin/bin/../../lib/gcc/pic32mx/4.8.3/../../../../pic32mx/lib/./proc/32MX795F512H/crt0_mips32r2.o
                0xbfc00000                _reset
 *(.reset.startup)
 .reset.startup
                0xbfc00008      0x1a0 d:/programas/microchip/xc32/v2.10/bin/bin/../../lib/gcc/pic32mx/4.8.3/../../../../pic32mx/lib/./proc/32MX795F512H/crt0_mips32r2.o
                0xbfc00008                _startup

.bev_excpt      0xbfc00380       0x10
 *(.bev_handler)
 .bev_handler   0xbfc00380       0x10 d:/programas/microchip/xc32/v2.10/bin/bin/../../lib/gcc/pic32mx/4.8.3/../../../../pic32mx/lib/./proc/32MX795F512H/crt0_mips32r2.o

.dbg_excpt      0xbfc00480        0x0
                0xbfc00480                . = (. + DEFINED (_DEBUGGER)?0x8:0x0)

.dbg_code       0xbfc02000        0x0
                0xbfc02000                . = (. + DEFINED (_DEBUGGER)?_DBG_CODE_SIZE:0x0)

.app_excpt      0x9fc01180       0x10
 *(.gen_handler)
 .gen_handler   0x9fc01180       0x10 d:/programas/microchip/xc32/v2.10/bin/bin/../../lib/gcc/pic32mx/4.8.3/../../../../pic32mx/lib/./proc/32MX795F512H/crt0_mips32r2.o

.vector_0       0x9fc01200        0x8
 *(.vector_0)
 .vector_0      0x9fc01200        0x8 d:/programas/microchip/xc32/v2.10/bin/bin/../../lib/gcc/pic32mx/4.8.3/../../../../pic32mx/lib\libpic32.a(vector0.o)
                0x9fc01200                __vector_dispatch_0
                0x00000001                ASSERT (((_vector_spacing == 0x0) || (SIZEOF (.vector_0) <= (_vector_spacing << 0x5))), function at exception vector 0 too large)

.vector_1       0x9fc01220        0x8
 *(.vector_1)
 .vector_1      0x9fc01220        0x8 d:/programas/microchip/xc32/v2.10/bin/bin/../../lib/gcc/pic32mx/4.8.3/../../../../pic32mx/lib\libpic32.a(vector1.o)
                0x9fc01220                __vector_dispatch_1
                0x00000001                ASSERT (((_vector_spacing == 0x0) || (SIZEOF (.vector_1) <= (_vector_spacing << 0x5))), function at exception vector 1 too large)

.vector_2       0x9fc01240        0x8
 *(.vector_2)
 .vector_2      0x9fc01240        0x8 d:/programas/microchip/xc32/v2.10/bin/bin/../../lib/gcc/pic32mx/4.8.3/../../../../pic32mx/lib\libpic32.a(vector2.o)
                0x9fc01240                __vector_dispatch_2
                0x00000001                ASSERT (((_vector_spacing == 0x0) || (SIZEOF (.vector_2) <= (_vector_spacing << 0x5))), function at exception vector 2 too large)

.vector_3       0x9fc01260        0x8
 *(.vector_3)
 .vector_3      0x9fc01260        0x8 d:/programas/microchip/xc32/v2.10/bin/bin/../../lib/gcc/pic32mx/4.8.3/../../../../pic32mx/lib\libpic32.a(vector3.o)
                0x9fc01260                __vector_dispatch_3
                0x00000001                ASSERT (((_vector_spacing == 0x0) || (SIZEOF (.vector_3) <= (_vector_spacing << 0x5))), function at exception vector 3 too large)

.vector_4       0x9fc01280        0x8
 *(.vector_4)
 .vector_4      0x9fc01280        0x8 build/default/production/main.o
                0x9fc01280                __vector_dispatch_4
                0x00000001                ASSERT (((_vector_spacing == 0x0) || (SIZEOF (.vector_4) <= (_vector_spacing << 0x5))), function at exception vector 4 too large)

.vector_5       0x9fc012a0        0x8
 *(.vector_5)
 .vector_5      0x9fc012a0        0x8 d:/programas/microchip/xc32/v2.10/bin/bin/../../lib/gcc/pic32mx/4.8.3/../../../../pic32mx/lib\libpic32.a(vector5.o)
                0x9fc012a0                __vector_dispatch_5
                0x00000001                ASSERT (((_vector_spacing == 0x0) || (SIZEOF (.vector_5) <= (_vector_spacing << 0x5))), function at exception vector 5 too large)

.vector_6       0x9fc012c0        0x8
 *(.vector_6)
 .vector_6      0x9fc012c0        0x8 d:/programas/microchip/xc32/v2.10/bin/bin/../../lib/gcc/pic32mx/4.8.3/../../../../pic32mx/lib\libpic32.a(vector6.o)
                0x9fc012c0                __vector_dispatch_6
                0x00000001                ASSERT (((_vector_spacing == 0x0) || (SIZEOF (.vector_6) <= (_vector_spacing << 0x5))), function at exception vector 6 too large)

.vector_7       0x9fc012e0        0x8
 *(.vector_7)
 .vector_7      0x9fc012e0        0x8 d:/programas/microchip/xc32/v2.10/bin/bin/../../lib/gcc/pic32mx/4.8.3/../../../../pic32mx/lib\libpic32.a(vector7.o)
                0x9fc012e0                __vector_dispatch_7
                0x00000001                ASSERT (((_vector_spacing == 0x0) || (SIZEOF (.vector_7) <= (_vector_spacing << 0x5))), function at exception vector 7 too large)

.vector_8       0x9fc01300        0x8
 *(.vector_8)
 .vector_8      0x9fc01300        0x8 d:/programas/microchip/xc32/v2.10/bin/bin/../../lib/gcc/pic32mx/4.8.3/../../../../pic32mx/lib\libpic32.a(vector8.o)
                0x9fc01300                __vector_dispatch_8
                0x00000001                ASSERT (((_vector_spacing == 0x0) || (SIZEOF (.vector_8) <= (_vector_spacing << 0x5))), function at exception vector 8 too large)

.vector_9       0x9fc01320        0x8
 *(.vector_9)
 .vector_9      0x9fc01320        0x8 d:/programas/microchip/xc32/v2.10/bin/bin/../../lib/gcc/pic32mx/4.8.3/../../../../pic32mx/lib\libpic32.a(vector9.o)
                0x9fc01320                __vector_dispatch_9
                0x00000001                ASSERT (((_vector_spacing == 0x0) || (SIZEOF (.vector_9) <= (_vector_spacing << 0x5))), function at exception vector 9 too large)

.vector_10      0x9fc01340        0x8
 *(.vector_10)
 .vector_10     0x9fc01340        0x8 d:/programas/microchip/xc32/v2.10/bin/bin/../../lib/gcc/pic32mx/4.8.3/../../../../pic32mx/lib\libpic32.a(vector10.o)
                0x9fc01340                __vector_dispatch_10
                0x00000001                ASSERT (((_vector_spacing == 0x0) || (SIZEOF (.vector_10) <= (_vector_spacing << 0x5))), function at exception vector 10 too large)

.vector_11      0x9fc01360        0x8
 *(.vector_11)
 .vector_11     0x9fc01360        0x8 d:/programas/microchip/xc32/v2.10/bin/bin/../../lib/gcc/pic32mx/4.8.3/../../../../pic32mx/lib\libpic32.a(vector11.o)
                0x9fc01360                __vector_dispatch_11
                0x00000001                ASSERT (((_vector_spacing == 0x0) || (SIZEOF (.vector_11) <= (_vector_spacing << 0x5))), function at exception vector 11 too large)

.vector_12      0x9fc01380        0x8
 *(.vector_12)
 .vector_12     0x9fc01380        0x8 d:/programas/microchip/xc32/v2.10/bin/bin/../../lib/gcc/pic32mx/4.8.3/../../../../pic32mx/lib\libpic32.a(vector12.o)
                0x9fc01380                __vector_dispatch_12
                0x00000001                ASSERT (((_vector_spacing == 0x0) || (SIZEOF (.vector_12) <= (_vector_spacing << 0x5))), function at exception vector 12 too large)

.vector_13      0x9fc013a0        0x8
 *(.vector_13)
 .vector_13     0x9fc013a0        0x8 d:/programas/microchip/xc32/v2.10/bin/bin/../../lib/gcc/pic32mx/4.8.3/../../../../pic32mx/lib\libpic32.a(vector13.o)
                0x9fc013a0                __vector_dispatch_13
                0x00000001                ASSERT (((_vector_spacing == 0x0) || (SIZEOF (.vector_13) <= (_vector_spacing << 0x5))), function at exception vector 13 too large)

.vector_14      0x9fc013c0        0x8
 *(.vector_14)
 .vector_14     0x9fc013c0        0x8 d:/programas/microchip/xc32/v2.10/bin/bin/../../lib/gcc/pic32mx/4.8.3/../../../../pic32mx/lib\libpic32.a(vector14.o)
                0x9fc013c0                __vector_dispatch_14
                0x00000001                ASSERT (((_vector_spacing == 0x0) || (SIZEOF (.vector_14) <= (_vector_spacing << 0x5))), function at exception vector 14 too large)

.vector_15      0x9fc013e0        0x8
 *(.vector_15)
 .vector_15     0x9fc013e0        0x8 d:/programas/microchip/xc32/v2.10/bin/bin/../../lib/gcc/pic32mx/4.8.3/../../../../pic32mx/lib\libpic32.a(vector15.o)
                0x9fc013e0                __vector_dispatch_15
                0x00000001                ASSERT (((_vector_spacing == 0x0) || (SIZEOF (.vector_15) <= (_vector_spacing << 0x5))), function at exception vector 15 too large)

.vector_16      0x9fc01400        0x8
 *(.vector_16)
 .vector_16     0x9fc01400        0x8 d:/programas/microchip/xc32/v2.10/bin/bin/../../lib/gcc/pic32mx/4.8.3/../../../../pic32mx/lib\libpic32.a(vector16.o)
                0x9fc01400                __vector_dispatch_16
                0x00000001                ASSERT (((_vector_spacing == 0x0) || (SIZEOF (.vector_16) <= (_vector_spacing << 0x5))), function at exception vector 16 too large)

.vector_17      0x9fc01420        0x8
 *(.vector_17)
 .vector_17     0x9fc01420        0x8 d:/programas/microchip/xc32/v2.10/bin/bin/../../lib/gcc/pic32mx/4.8.3/../../../../pic32mx/lib\libpic32.a(vector17.o)
                0x9fc01420                __vector_dispatch_17
                0x00000001                ASSERT (((_vector_spacing == 0x0) || (SIZEOF (.vector_17) <= (_vector_spacing << 0x5))), function at exception vector 17 too large)

.vector_18      0x9fc01440        0x8
 *(.vector_18)
 .vector_18     0x9fc01440        0x8 d:/programas/microchip/xc32/v2.10/bin/bin/../../lib/gcc/pic32mx/4.8.3/../../../../pic32mx/lib\libpic32.a(vector18.o)
                0x9fc01440                __vector_dispatch_18
                0x00000001                ASSERT (((_vector_spacing == 0x0) || (SIZEOF (.vector_18) <= (_vector_spacing << 0x5))), function at exception vector 18 too large)

.vector_19      0x9fc01460        0x8
 *(.vector_19)
 .vector_19     0x9fc01460        0x8 d:/programas/microchip/xc32/v2.10/bin/bin/../../lib/gcc/pic32mx/4.8.3/../../../../pic32mx/lib\libpic32.a(vector19.o)
                0x9fc01460                __vector_dispatch_19
                0x00000001                ASSERT (((_vector_spacing == 0x0) || (SIZEOF (.vector_19) <= (_vector_spacing << 0x5))), function at exception vector 19 too large)

.vector_20      0x9fc01480        0x8
 *(.vector_20)
 .vector_20     0x9fc01480        0x8 d:/programas/microchip/xc32/v2.10/bin/bin/../../lib/gcc/pic32mx/4.8.3/../../../../pic32mx/lib\libpic32.a(vector20.o)
                0x9fc01480                __vector_dispatch_20
                0x00000001                ASSERT (((_vector_spacing == 0x0) || (SIZEOF (.vector_20) <= (_vector_spacing << 0x5))), function at exception vector 20 too large)

.vector_21      0x9fc014a0        0x8
 *(.vector_21)
 .vector_21     0x9fc014a0        0x8 d:/programas/microchip/xc32/v2.10/bin/bin/../../lib/gcc/pic32mx/4.8.3/../../../../pic32mx/lib\libpic32.a(vector21.o)
                0x9fc014a0                __vector_dispatch_21
                0x00000001                ASSERT (((_vector_spacing == 0x0) || (SIZEOF (.vector_21) <= (_vector_spacing << 0x5))), function at exception vector 21 too large)

.vector_22      0x9fc014c0        0x8
 *(.vector_22)
 .vector_22     0x9fc014c0        0x8 d:/programas/microchip/xc32/v2.10/bin/bin/../../lib/gcc/pic32mx/4.8.3/../../../../pic32mx/lib\libpic32.a(vector22.o)
                0x9fc014c0                __vector_dispatch_22
                0x00000001                ASSERT (((_vector_spacing == 0x0) || (SIZEOF (.vector_22) <= (_vector_spacing << 0x5))), function at exception vector 22 too large)

.vector_23      0x9fc014e0        0x8
 *(.vector_23)
 .vector_23     0x9fc014e0        0x8 d:/programas/microchip/xc32/v2.10/bin/bin/../../lib/gcc/pic32mx/4.8.3/../../../../pic32mx/lib\libpic32.a(vector23.o)
                0x9fc014e0                __vector_dispatch_23
                0x00000001                ASSERT (((_vector_spacing == 0x0) || (SIZEOF (.vector_23) <= (_vector_spacing << 0x5))), function at exception vector 23 too large)

.vector_24      0x9fc01500        0x8
 *(.vector_24)
 .vector_24     0x9fc01500        0x8 d:/programas/microchip/xc32/v2.10/bin/bin/../../lib/gcc/pic32mx/4.8.3/../../../../pic32mx/lib\libpic32.a(vector24.o)
                0x9fc01500                __vector_dispatch_24
                0x00000001                ASSERT (((_vector_spacing == 0x0) || (SIZEOF (.vector_24) <= (_vector_spacing << 0x5))), function at exception vector 24 too large)

.vector_25      0x9fc01520        0x8
 *(.vector_25)
 .vector_25     0x9fc01520        0x8 d:/programas/microchip/xc32/v2.10/bin/bin/../../lib/gcc/pic32mx/4.8.3/../../../../pic32mx/lib\libpic32.a(vector25.o)
                0x9fc01520                __vector_dispatch_25
                0x00000001                ASSERT (((_vector_spacing == 0x0) || (SIZEOF (.vector_25) <= (_vector_spacing << 0x5))), function at exception vector 25 too large)

.vector_26      0x9fc01540        0x8
 *(.vector_26)
 .vector_26     0x9fc01540        0x8 d:/programas/microchip/xc32/v2.10/bin/bin/../../lib/gcc/pic32mx/4.8.3/../../../../pic32mx/lib\libpic32.a(vector26.o)
                0x9fc01540                __vector_dispatch_26
                0x00000001                ASSERT (((_vector_spacing == 0x0) || (SIZEOF (.vector_26) <= (_vector_spacing << 0x5))), function at exception vector 26 too large)

.vector_27      0x9fc01560        0x8
 *(.vector_27)
 .vector_27     0x9fc01560        0x8 d:/programas/microchip/xc32/v2.10/bin/bin/../../lib/gcc/pic32mx/4.8.3/../../../../pic32mx/lib\libpic32.a(vector27.o)
                0x9fc01560                __vector_dispatch_27
                0x00000001                ASSERT (((_vector_spacing == 0x0) || (SIZEOF (.vector_27) <= (_vector_spacing << 0x5))), function at exception vector 27 too large)

.vector_28      0x9fc01580        0x8
 *(.vector_28)
 .vector_28     0x9fc01580        0x8 d:/programas/microchip/xc32/v2.10/bin/bin/../../lib/gcc/pic32mx/4.8.3/../../../../pic32mx/lib\libpic32.a(vector28.o)
                0x9fc01580                __vector_dispatch_28
                0x00000001                ASSERT (((_vector_spacing == 0x0) || (SIZEOF (.vector_28) <= (_vector_spacing << 0x5))), function at exception vector 28 too large)

.vector_29      0x9fc015a0        0x8
 *(.vector_29)
 .vector_29     0x9fc015a0        0x8 d:/programas/microchip/xc32/v2.10/bin/bin/../../lib/gcc/pic32mx/4.8.3/../../../../pic32mx/lib\libpic32.a(vector29.o)
                0x9fc015a0                __vector_dispatch_29
                0x00000001                ASSERT (((_vector_spacing == 0x0) || (SIZEOF (.vector_29) <= (_vector_spacing << 0x5))), function at exception vector 29 too large)

.vector_30      0x9fc015c0        0x8
 *(.vector_30)
 .vector_30     0x9fc015c0        0x8 d:/programas/microchip/xc32/v2.10/bin/bin/../../lib/gcc/pic32mx/4.8.3/../../../../pic32mx/lib\libpic32.a(vector30.o)
                0x9fc015c0                __vector_dispatch_30
                0x00000001                ASSERT (((_vector_spacing == 0x0) || (SIZEOF (.vector_30) <= (_vector_spacing << 0x5))), function at exception vector 30 too large)

.vector_31      0x9fc015e0        0x8
 *(.vector_31)
 .vector_31     0x9fc015e0        0x8 d:/programas/microchip/xc32/v2.10/bin/bin/../../lib/gcc/pic32mx/4.8.3/../../../../pic32mx/lib\libpic32.a(vector31.o)
                0x9fc015e0                __vector_dispatch_31
                0x00000001                ASSERT (((_vector_spacing == 0x0) || (SIZEOF (.vector_31) <= (_vector_spacing << 0x5))), function at exception vector 31 too large)

.vector_32      0x9fc01600        0x8
 *(.vector_32)
 .vector_32     0x9fc01600        0x8 d:/programas/microchip/xc32/v2.10/bin/bin/../../lib/gcc/pic32mx/4.8.3/../../../../pic32mx/lib\libpic32.a(vector32.o)
                0x9fc01600                __vector_dispatch_32
                0x00000001                ASSERT (((_vector_spacing == 0x0) || (SIZEOF (.vector_32) <= (_vector_spacing << 0x5))), function at exception vector 32 too large)

.vector_33      0x9fc01620        0x8
 *(.vector_33)
 .vector_33     0x9fc01620        0x8 d:/programas/microchip/xc32/v2.10/bin/bin/../../lib/gcc/pic32mx/4.8.3/../../../../pic32mx/lib\libpic32.a(vector33.o)
                0x9fc01620                __vector_dispatch_33
                0x00000001                ASSERT (((_vector_spacing == 0x0) || (SIZEOF (.vector_33) <= (_vector_spacing << 0x5))), function at exception vector 33 too large)

.vector_34      0x9fc01640        0x8
 *(.vector_34)
 .vector_34     0x9fc01640        0x8 d:/programas/microchip/xc32/v2.10/bin/bin/../../lib/gcc/pic32mx/4.8.3/../../../../pic32mx/lib\libpic32.a(vector34.o)
                0x9fc01640                __vector_dispatch_34
                0x00000001                ASSERT (((_vector_spacing == 0x0) || (SIZEOF (.vector_34) <= (_vector_spacing << 0x5))), function at exception vector 34 too large)

.vector_35      0x9fc01660        0x8
 *(.vector_35)
 .vector_35     0x9fc01660        0x8 d:/programas/microchip/xc32/v2.10/bin/bin/../../lib/gcc/pic32mx/4.8.3/../../../../pic32mx/lib\libpic32.a(vector35.o)
                0x9fc01660                __vector_dispatch_35
                0x00000001                ASSERT (((_vector_spacing == 0x0) || (SIZEOF (.vector_35) <= (_vector_spacing << 0x5))), function at exception vector 35 too large)

.vector_36      0x9fc01680        0x8
 *(.vector_36)
 .vector_36     0x9fc01680        0x8 d:/programas/microchip/xc32/v2.10/bin/bin/../../lib/gcc/pic32mx/4.8.3/../../../../pic32mx/lib\libpic32.a(vector36.o)
                0x9fc01680                __vector_dispatch_36
                0x00000001                ASSERT (((_vector_spacing == 0x0) || (SIZEOF (.vector_36) <= (_vector_spacing << 0x5))), function at exception vector 36 too large)

.vector_37      0x9fc016a0        0x8
 *(.vector_37)
 .vector_37     0x9fc016a0        0x8 d:/programas/microchip/xc32/v2.10/bin/bin/../../lib/gcc/pic32mx/4.8.3/../../../../pic32mx/lib\libpic32.a(vector37.o)
                0x9fc016a0                __vector_dispatch_37
                0x00000001                ASSERT (((_vector_spacing == 0x0) || (SIZEOF (.vector_37) <= (_vector_spacing << 0x5))), function at exception vector 37 too large)

.vector_38      0x9fc016c0        0x8
 *(.vector_38)
 .vector_38     0x9fc016c0        0x8 d:/programas/microchip/xc32/v2.10/bin/bin/../../lib/gcc/pic32mx/4.8.3/../../../../pic32mx/lib\libpic32.a(vector38.o)
                0x9fc016c0                __vector_dispatch_38
                0x00000001                ASSERT (((_vector_spacing == 0x0) || (SIZEOF (.vector_38) <= (_vector_spacing << 0x5))), function at exception vector 38 too large)

.vector_39      0x9fc016e0        0x8
 *(.vector_39)
 .vector_39     0x9fc016e0        0x8 d:/programas/microchip/xc32/v2.10/bin/bin/../../lib/gcc/pic32mx/4.8.3/../../../../pic32mx/lib\libpic32.a(vector39.o)
                0x9fc016e0                __vector_dispatch_39
                0x00000001                ASSERT (((_vector_spacing == 0x0) || (SIZEOF (.vector_39) <= (_vector_spacing << 0x5))), function at exception vector 39 too large)

.vector_40      0x9fc01700        0x8
 *(.vector_40)
 .vector_40     0x9fc01700        0x8 d:/programas/microchip/xc32/v2.10/bin/bin/../../lib/gcc/pic32mx/4.8.3/../../../../pic32mx/lib\libpic32.a(vector40.o)
                0x9fc01700                __vector_dispatch_40
                0x00000001                ASSERT (((_vector_spacing == 0x0) || (SIZEOF (.vector_40) <= (_vector_spacing << 0x5))), function at exception vector 40 too large)

.vector_41      0x9fc01720        0x8
 *(.vector_41)
 .vector_41     0x9fc01720        0x8 d:/programas/microchip/xc32/v2.10/bin/bin/../../lib/gcc/pic32mx/4.8.3/../../../../pic32mx/lib\libpic32.a(vector41.o)
                0x9fc01720                __vector_dispatch_41
                0x00000001                ASSERT (((_vector_spacing == 0x0) || (SIZEOF (.vector_41) <= (_vector_spacing << 0x5))), function at exception vector 41 too large)

.vector_42      0x9fc01740        0x8
 *(.vector_42)
 .vector_42     0x9fc01740        0x8 d:/programas/microchip/xc32/v2.10/bin/bin/../../lib/gcc/pic32mx/4.8.3/../../../../pic32mx/lib\libpic32.a(vector42.o)
                0x9fc01740                __vector_dispatch_42
                0x00000001                ASSERT (((_vector_spacing == 0x0) || (SIZEOF (.vector_42) <= (_vector_spacing << 0x5))), function at exception vector 42 too large)

.vector_43      0x9fc01760        0x8
 *(.vector_43)
 .vector_43     0x9fc01760        0x8 d:/programas/microchip/xc32/v2.10/bin/bin/../../lib/gcc/pic32mx/4.8.3/../../../../pic32mx/lib\libpic32.a(vector43.o)
                0x9fc01760                __vector_dispatch_43
                0x00000001                ASSERT (((_vector_spacing == 0x0) || (SIZEOF (.vector_43) <= (_vector_spacing << 0x5))), function at exception vector 43 too large)

.vector_44      0x9fc01780        0x8
 *(.vector_44)
 .vector_44     0x9fc01780        0x8 d:/programas/microchip/xc32/v2.10/bin/bin/../../lib/gcc/pic32mx/4.8.3/../../../../pic32mx/lib\libpic32.a(vector44.o)
                0x9fc01780                __vector_dispatch_44
                0x00000001                ASSERT (((_vector_spacing == 0x0) || (SIZEOF (.vector_44) <= (_vector_spacing << 0x5))), function at exception vector 44 too large)

.vector_45      0x9fc017a0        0x8
 *(.vector_45)
 .vector_45     0x9fc017a0        0x8 d:/programas/microchip/xc32/v2.10/bin/bin/../../lib/gcc/pic32mx/4.8.3/../../../../pic32mx/lib\libpic32.a(vector45.o)
                0x9fc017a0                __vector_dispatch_45
                0x00000001                ASSERT (((_vector_spacing == 0x0) || (SIZEOF (.vector_45) <= (_vector_spacing << 0x5))), function at exception vector 45 too large)

.vector_46      0x9fc017c0        0x8
 *(.vector_46)
 .vector_46     0x9fc017c0        0x8 d:/programas/microchip/xc32/v2.10/bin/bin/../../lib/gcc/pic32mx/4.8.3/../../../../pic32mx/lib\libpic32.a(vector46.o)
                0x9fc017c0                __vector_dispatch_46
                0x00000001                ASSERT (((_vector_spacing == 0x0) || (SIZEOF (.vector_46) <= (_vector_spacing << 0x5))), function at exception vector 46 too large)

.vector_47      0x9fc017e0        0x8
 *(.vector_47)
 .vector_47     0x9fc017e0        0x8 d:/programas/microchip/xc32/v2.10/bin/bin/../../lib/gcc/pic32mx/4.8.3/../../../../pic32mx/lib\libpic32.a(vector47.o)
                0x9fc017e0                __vector_dispatch_47
                0x00000001                ASSERT (((_vector_spacing == 0x0) || (SIZEOF (.vector_47) <= (_vector_spacing << 0x5))), function at exception vector 47 too large)

.vector_48      0x9fc01800        0x8
 *(.vector_48)
 .vector_48     0x9fc01800        0x8 d:/programas/microchip/xc32/v2.10/bin/bin/../../lib/gcc/pic32mx/4.8.3/../../../../pic32mx/lib\libpic32.a(vector48.o)
                0x9fc01800                __vector_dispatch_48
                0x00000001                ASSERT (((_vector_spacing == 0x0) || (SIZEOF (.vector_48) <= (_vector_spacing << 0x5))), function at exception vector 48 too large)

.vector_49      0x9fc01820        0x8
 *(.vector_49)
 .vector_49     0x9fc01820        0x8 d:/programas/microchip/xc32/v2.10/bin/bin/../../lib/gcc/pic32mx/4.8.3/../../../../pic32mx/lib\libpic32.a(vector49.o)
                0x9fc01820                __vector_dispatch_49
                0x00000001                ASSERT (((_vector_spacing == 0x0) || (SIZEOF (.vector_49) <= (_vector_spacing << 0x5))), function at exception vector 49 too large)

.vector_50      0x9fc01840        0x8
 *(.vector_50)
 .vector_50     0x9fc01840        0x8 d:/programas/microchip/xc32/v2.10/bin/bin/../../lib/gcc/pic32mx/4.8.3/../../../../pic32mx/lib\libpic32.a(vector50.o)
                0x9fc01840                __vector_dispatch_50
                0x00000001                ASSERT (((_vector_spacing == 0x0) || (SIZEOF (.vector_50) <= (_vector_spacing << 0x5))), function at exception vector 50 too large)

.vector_51      0x9fc01860        0x8
 *(.vector_51)
 .vector_51     0x9fc01860        0x8 d:/programas/microchip/xc32/v2.10/bin/bin/../../lib/gcc/pic32mx/4.8.3/../../../../pic32mx/lib\libpic32.a(vector51.o)
                0x9fc01860                __vector_dispatch_51
                0x00000001                ASSERT (((_vector_spacing == 0x0) || (SIZEOF (.vector_51) <= (_vector_spacing << 0x5))), function at exception vector 51 too large)

.vector_52      0x9fc01880        0x0
 *(.vector_52)
                0x00000001                ASSERT (((_vector_spacing == 0x0) || (SIZEOF (.vector_52) <= (_vector_spacing << 0x5))), function at exception vector 52 too large)

.vector_53      0x9fc018a0        0x0
 *(.vector_53)
                0x00000001                ASSERT (((_vector_spacing == 0x0) || (SIZEOF (.vector_53) <= (_vector_spacing << 0x5))), function at exception vector 53 too large)

.vector_54      0x9fc018c0        0x0
 *(.vector_54)
                0x00000001                ASSERT (((_vector_spacing == 0x0) || (SIZEOF (.vector_54) <= (_vector_spacing << 0x5))), function at exception vector 54 too large)

.vector_55      0x9fc018e0        0x0
 *(.vector_55)
                0x00000001                ASSERT (((_vector_spacing == 0x0) || (SIZEOF (.vector_55) <= (_vector_spacing << 0x5))), function at exception vector 55 too large)

.vector_56      0x9fc01900        0x0
 *(.vector_56)
                0x00000001                ASSERT (((_vector_spacing == 0x0) || (SIZEOF (.vector_56) <= (_vector_spacing << 0x5))), function at exception vector 56 too large)

.vector_57      0x9fc01920        0x0
 *(.vector_57)
                0x00000001                ASSERT (((_vector_spacing == 0x0) || (SIZEOF (.vector_57) <= (_vector_spacing << 0x5))), function at exception vector 57 too large)

.vector_58      0x9fc01940        0x0
 *(.vector_58)
                0x00000001                ASSERT (((_vector_spacing == 0x0) || (SIZEOF (.vector_58) <= (_vector_spacing << 0x5))), function at exception vector 58 too large)

.vector_59      0x9fc01960        0x0
 *(.vector_59)
                0x00000001                ASSERT (((_vector_spacing == 0x0) || (SIZEOF (.vector_59) <= (_vector_spacing << 0x5))), function at exception vector 59 too large)

.vector_60      0x9fc01980        0x0
 *(.vector_60)
                0x00000001                ASSERT (((_vector_spacing == 0x0) || (SIZEOF (.vector_60) <= (_vector_spacing << 0x5))), function at exception vector 60 too large)

.vector_61      0x9fc019a0        0x0
 *(.vector_61)
                0x00000001                ASSERT (((_vector_spacing == 0x0) || (SIZEOF (.vector_61) <= (_vector_spacing << 0x5))), function at exception vector 61 too large)

.vector_62      0x9fc019c0        0x0
 *(.vector_62)
                0x00000001                ASSERT (((_vector_spacing == 0x0) || (SIZEOF (.vector_62) <= (_vector_spacing << 0x5))), function at exception vector 62 too large)

.vector_63      0x9fc019e0        0x0
 *(.vector_63)
                0x00000001                ASSERT (((_vector_spacing == 0x0) || (SIZEOF (.vector_63) <= (_vector_spacing << 0x5))), function at exception vector 63 too large)

.startup
 *(.startup)

.text           0x9d000000        0x0
 *(.stub .gnu.linkonce.t.*)
 *(.text.*personality*)
 *(.mips16.fn.*)
 *(.mips16.call.*)
 *(.gnu.warning)
                0x9d000000                . = ALIGN (0x4)

.init           0x9d000000        0x0
 *crti.o(.init)
 *crtbegin.o(.init)
 *(EXCLUDE_FILE(*crtn.o *crtend?.o *crtend.o) .init)
 *crtend.o(.init)
 *crtn.o(.init)
                0x9d000000                . = ALIGN (0x4)

.fini           0x9d000000        0x0
 *(.fini)
                0x9d000000                . = ALIGN (0x4)

.preinit_array  0x9d000000        0x0
                0x9d000000                PROVIDE (__preinit_array_start, .)
 *(.preinit_array)
                0x9d000000                PROVIDE (__preinit_array_end, .)
                0x9d000000                . = ALIGN (0x4)

.init_array     0x9d000000        0x0
                0x9d000000                PROVIDE (__init_array_start, .)
 *(SORT(.init_array.*))
 *(.init_array)
                0x9d000000                PROVIDE (__init_array_end, .)
                0x9d000000                . = ALIGN (0x4)

.fini_array     0x9d000000        0x0
                0x9d000000                PROVIDE (__fini_array_start, .)
 *(SORT(.fini_array.*))
 *(.fini_array)
                0x9d000000                PROVIDE (__fini_array_end, .)
                0x9d000000                . = ALIGN (0x4)

.ctors          0x9d000000        0x0
 *crtbegin.o(.ctors)
 *crtbegin?.o(.ctors)
 *(EXCLUDE_FILE(*crtend?.o *crtend.o) .ctors)
 *(SORT(.ctors.*))
 *(.ctors)
                0x9d000000                . = ALIGN (0x4)

.dtors          0x9d000000        0x0
 *crtbegin.o(.dtors)
 *crtbegin?.o(.dtors)
 *(EXCLUDE_FILE(*crtend?.o *crtend.o) .dtors)
 *(SORT(.dtors.*))
 *(.dtors)
                0x9d000000                . = ALIGN (0x4)

.rodata         0x9d000000        0x0
 *(.gnu.linkonce.r.*)
 *(.rodata1)
                0x9d000000                . = ALIGN (0x4)

.sdata2         0x9fc00490        0x0
 *(.sdata2 .sdata2.* .gnu.linkonce.s2.*)
                0x9fc00490                . = ALIGN (0x4)

.sbss2          0x9fc00490        0x0
 *(.sbss2 .sbss2.* .gnu.linkonce.sb2.*)
                0x9fc00490                . = ALIGN (0x4)

.eh_frame_hdr
 *(.eh_frame_hdr)
                0x9fc00490                . = ALIGN (0x4)

.eh_frame
 *(.eh_frame)
                0x9fc00490                . = ALIGN (0x4)

.gcc_except_table
 *(.gcc_except_table .gcc_except_table.*)
                0x9fc00490                . = ALIGN (0x4)

.dbg_data       0xa0000000        0x0
                0xa0000000                . = (. + DEFINED (_DEBUGGER)?0x200:0x0)

.jcr            0xa0000000        0x0
 *(.jcr)
                0xa0000000                . = ALIGN (0x4)

.eh_frame
 *(.eh_frame)
                0xa0000000                . = ALIGN (0x4)

.gcc_except_table
 *(.gcc_except_table .gcc_except_table.*)
                0xa0000000                . = ALIGN (0x4)

.persist        0xa0000000        0x0
                0xa0000000                _persist_begin = .
 *(.persist .persist.*)
 *(.pbss .pbss.*)
                0xa0000000                . = ALIGN (0x4)
                0xa0000000                _persist_end = .

.data           0xa0000000        0x0
 *(.gnu.linkonce.d.*)
 *(.data1)
                0xa0000000                . = ALIGN (0x4)
                0xa0000000                . = .
                0xa0007ff0                _gp = (ALIGN (0x10) + 0x7ff0)

.got            0xa0000000        0x0
 *(.got.plt)
 *(.got)
                0xa0000000                . = ALIGN (0x4)

.sdata          0xa0000000       0x2c
                0xa0000000                _sdata_begin = .
 *(.sdata .sdata.* .gnu.linkonce.s.*)
 .sdata         0xa0000000        0x2 build/default/production/lvgl/src/lv_draw/lv_draw_basic.o
 *fill*         0xa0000002        0x2 
 .sdata         0xa0000004       0x20 build/default/production/lvgl/src/lv_misc/lv_txt.o
                0xa0000004                lv_txt_get_encoded_length
                0xa0000008                lv_txt_encoded_get_char_id
                0xa000000c                lv_txt_encoded_get_byte_id
                0xa0000010                lv_txt_encoded_prev
                0xa0000014                lv_txt_encoded_next
                0xa0000018                lv_txt_encoded_conv_wc
                0xa000001c                lv_txt_unicode_to_encoded
                0xa0000020                lv_txt_encoded_size
 .sdata         0xa0000024        0x4 build/default/production/lvgl/src/lv_objx/lv_tabview.o
 .sdata         0xa0000028        0x4 build/default/production/RA8875.o
                0xa0000028                _height
                0xa000002a                _width
                0xa000002c                . = ALIGN (0x4)
                0xa000002c                _sdata_end = .

.lit8
 *(.lit8)

.lit4
 *(.lit4)
                0xa000002c                . = ALIGN (0x4)
                0xa000002c                _data_end = .
                0xa000002c                _bss_begin = .

.sbss           0xa000002c      0x178
                0xa000002c                _sbss_begin = .
 *(.dynsbss)
 *(.sbss .sbss.* .gnu.linkonce.sb.*)
 .sbss          0xa000002c        0x8 build/default/production/lvgl/src/lv_core/lv_indev.o
 .sbss          0xa0000034        0xc build/default/production/lvgl/src/lv_core/lv_obj.o
 .sbss          0xa0000040        0x8 build/default/production/lvgl/src/lv_core/lv_refr.o
 .sbss          0xa0000048        0x4 build/default/production/lvgl/src/lv_draw/lv_draw.o
 .sbss          0xa000004c        0x2 build/default/production/lvgl/src/lv_draw/lv_img_cache.o
 *fill*         0xa000004e        0x2 
 .sbss          0xa0000050       0x14 build/default/production/lvgl/src/lv_font/lv_font_fmt_txt.o
 .sbss          0xa0000064        0x4 build/default/production/lvgl/src/lv_hal/lv_hal_disp.o
 .sbss          0xa0000068        0x8 build/default/production/lvgl/src/lv_hal/lv_hal_tick.o
 .sbss          0xa0000070        0x8 build/default/production/lvgl/src/lv_misc/lv_anim.o
 .sbss          0xa0000078        0x8 build/default/production/lvgl/src/lv_misc/lv_mem.o
 .sbss          0xa0000080       0x14 build/default/production/lvgl/src/lv_misc/lv_task.o
 .sbss          0xa0000094        0x8 build/default/production/lvgl/src/lv_objx/lv_arc.o
 .sbss          0xa000009c        0x8 build/default/production/lvgl/src/lv_objx/lv_bar.o
 .sbss          0xa00000a4        0x8 build/default/production/lvgl/src/lv_objx/lv_btn.o
 .sbss          0xa00000ac        0x8 build/default/production/lvgl/src/lv_objx/lv_btnm.o
 .sbss          0xa00000b4        0x8 build/default/production/lvgl/src/lv_objx/lv_calendar.o
 .sbss          0xa00000bc        0x8 build/default/production/lvgl/src/lv_objx/lv_canvas.o
 .sbss          0xa00000c4        0xc build/default/production/lvgl/src/lv_objx/lv_cb.o
 .sbss          0xa00000d0        0x8 build/default/production/lvgl/src/lv_objx/lv_chart.o
 .sbss          0xa00000d8        0x4 build/default/production/lvgl/src/lv_objx/lv_cont.o
 .sbss          0xa00000dc        0x8 build/default/production/lvgl/src/lv_objx/lv_cpicker.o
 .sbss          0xa00000e4        0xc build/default/production/lvgl/src/lv_objx/lv_ddlist.o
 .sbss          0xa00000f0        0x8 build/default/production/lvgl/src/lv_objx/lv_gauge.o
 .sbss          0xa00000f8        0x4 build/default/production/lvgl/src/lv_objx/lv_img.o
 .sbss          0xa00000fc        0x8 build/default/production/lvgl/src/lv_objx/lv_imgbtn.o
 .sbss          0xa0000104        0x4 build/default/production/lvgl/src/lv_objx/lv_kb.o
 .sbss          0xa0000108        0x4 build/default/production/lvgl/src/lv_objx/lv_label.o
 .sbss          0xa000010c        0x8 build/default/production/lvgl/src/lv_objx/lv_led.o
 .sbss          0xa0000114        0x4 build/default/production/lvgl/src/lv_objx/lv_line.o
 .sbss          0xa0000118       0x10 build/default/production/lvgl/src/lv_objx/lv_list.o
 .sbss          0xa0000128        0x4 build/default/production/lvgl/src/lv_objx/lv_lmeter.o
 .sbss          0xa000012c        0x4 build/default/production/lvgl/src/lv_objx/lv_mbox.o
 .sbss          0xa0000130        0x8 build/default/production/lvgl/src/lv_objx/lv_page.o
 .sbss          0xa0000138        0x8 build/default/production/lvgl/src/lv_objx/lv_preload.o
 .sbss          0xa0000140        0x8 build/default/production/lvgl/src/lv_objx/lv_roller.o
 .sbss          0xa0000148        0x8 build/default/production/lvgl/src/lv_objx/lv_slider.o
 .sbss          0xa0000150        0x8 build/default/production/lvgl/src/lv_objx/lv_spinbox.o
 .sbss          0xa0000158        0x4 build/default/production/lvgl/src/lv_objx/lv_sw.o
 .sbss          0xa000015c       0x14 build/default/production/lvgl/src/lv_objx/lv_ta.o
 .sbss          0xa0000170        0x8 build/default/production/lvgl/src/lv_objx/lv_table.o
 .sbss          0xa0000178        0xc build/default/production/lvgl/src/lv_objx/lv_tabview.o
 .sbss          0xa0000184        0xc build/default/production/lvgl/src/lv_objx/lv_tileview.o
 .sbss          0xa0000190        0x4 build/default/production/lvgl/src/lv_objx/lv_win.o
 .sbss          0xa0000194        0x4 build/default/production/lvgl/src/lv_themes/lv_theme.o
 *(.scommon)
 .scommon       0xa0000198        0xc build/default/production/lvgl/src/lv_misc/lv_gc.o
                0xa0000198                _lv_task_act
                0xa000019c                _lv_img_cache_array
                0xa00001a0                _lv_draw_buf
                0xa00001a4                _sbss_end = .
                0xa00001a4                . = ALIGN (0x4)

.bss            0xa00001a4      0x3a0
 *(.dynbss)
 *(COMMON)
 COMMON         0xa00001a4      0x340 build/default/production/lvgl/src/lv_core/lv_style.o
                0xa00001a4                lv_style_transp_fit
                0xa00001e4                lv_style_btn_ina
                0xa0000224                lv_style_btn_rel
                0xa0000264                lv_style_transp
                0xa00002a4                lv_style_btn_pr
                0xa00002e4                lv_style_pretty
                0xa0000324                lv_style_scr
                0xa0000364                lv_style_btn_tgl_pr
                0xa00003a4                lv_style_transp_tight
                0xa00003e4                lv_style_btn_tgl_rel
                0xa0000424                lv_style_plain
                0xa0000464                lv_style_plain_color
                0xa00004a4                lv_style_pretty_color
 COMMON         0xa00004e4       0x60 build/default/production/lvgl/src/lv_misc/lv_gc.o
                0xa00004e4                _lv_group_ll
                0xa00004f0                _lv_disp_ll
                0xa00004fc                _lv_file_ll
                0xa0000508                _lv_img_defoder_ll
                0xa0000514                _lv_drv_ll
                0xa0000520                _lv_task_ll
                0xa000052c                _lv_indev_ll
                0xa0000538                _lv_anim_ll
                0xa0000544                . = ALIGN ((. != 0x0)?0x4:0x1)
                0xa0000544                . = ALIGN (0x4)
                0xa0000544                _end = .
                0xa0000544                _bss_end = .
                0x00020000                _bmxdudba_address = 0x20000
                0x00020000                _bmxdupba_address = 0x20000

/DISCARD/
 *(.pdr)
 *(.rel.dyn)
 *(.note.GNU-stack)
 *(.note.GNU-stack)
 *(.gnu_debuglink)
 *(.gnu.lto_*)
 *(.discard)

.gptab.sdata
 *(.gptab.data)
 *(.gptab.sdata)

.gptab.sbss
 *(.gptab.bss)
 *(.gptab.sbss)

.mdebug.abi32   0xa0000544        0x0
 *(.mdebug.abi32)
 .mdebug.abi32  0xa0000544        0x0 build/default/production/lvgl/porting/lv_port_disp_template.o
 .mdebug.abi32  0xa0000544        0x0 build/default/production/lvgl/porting/lv_port_fs_template.o
 .mdebug.abi32  0xa0000544        0x0 build/default/production/lvgl/porting/lv_port_indev_template.o
 .mdebug.abi32  0xa0000544        0x0 build/default/production/lvgl/src/lv_core/lv_debug.o
 .mdebug.abi32  0xa0000544        0x0 build/default/production/lvgl/src/lv_core/lv_disp.o
 .mdebug.abi32  0xa0000544        0x0 build/default/production/lvgl/src/lv_core/lv_group.o
 .mdebug.abi32  0xa0000544        0x0 build/default/production/lvgl/src/lv_core/lv_indev.o
 .mdebug.abi32  0xa0000544        0x0 build/default/production/lvgl/src/lv_core/lv_obj.o
 .mdebug.abi32  0xa0000544        0x0 build/default/production/lvgl/src/lv_core/lv_refr.o
 .mdebug.abi32  0xa0000544        0x0 build/default/production/lvgl/src/lv_core/lv_style.o
 .mdebug.abi32  0xa0000544        0x0 build/default/production/lvgl/src/lv_draw/lv_draw.o
 .mdebug.abi32  0xa0000544        0x0 build/default/production/lvgl/src/lv_draw/lv_draw_arc.o
 .mdebug.abi32  0xa0000544        0x0 build/default/production/lvgl/src/lv_draw/lv_draw_basic.o
 .mdebug.abi32  0xa0000544        0x0 build/default/production/lvgl/src/lv_draw/lv_draw_img.o
 .mdebug.abi32  0xa0000544        0x0 build/default/production/lvgl/src/lv_draw/lv_draw_label.o
 .mdebug.abi32  0xa0000544        0x0 build/default/production/lvgl/src/lv_draw/lv_draw_line.o
 .mdebug.abi32  0xa0000544        0x0 build/default/production/lvgl/src/lv_draw/lv_draw_rect.o
 .mdebug.abi32  0xa0000544        0x0 build/default/production/lvgl/src/lv_draw/lv_draw_triangle.o
 .mdebug.abi32  0xa0000544        0x0 build/default/production/lvgl/src/lv_draw/lv_img_cache.o
 .mdebug.abi32  0xa0000544        0x0 build/default/production/lvgl/src/lv_draw/lv_img_decoder.o
 .mdebug.abi32  0xa0000544        0x0 build/default/production/lvgl/src/lv_font/lv_font.o
 .mdebug.abi32  0xa0000544        0x0 build/default/production/lvgl/src/lv_font/lv_font_fmt_txt.o
 .mdebug.abi32  0xa0000544        0x0 build/default/production/lvgl/src/lv_font/lv_font_roboto_12.o
 .mdebug.abi32  0xa0000544        0x0 build/default/production/lvgl/src/lv_font/lv_font_roboto_12_subpx.o
 .mdebug.abi32  0xa0000544        0x0 build/default/production/lvgl/src/lv_font/lv_font_roboto_16.o
 .mdebug.abi32  0xa0000544        0x0 build/default/production/lvgl/src/lv_font/lv_font_roboto_22.o
 .mdebug.abi32  0xa0000544        0x0 build/default/production/lvgl/src/lv_font/lv_font_roboto_28.o
 .mdebug.abi32  0xa0000544        0x0 build/default/production/lvgl/src/lv_font/lv_font_roboto_28_compressed.o
 .mdebug.abi32  0xa0000544        0x0 build/default/production/lvgl/src/lv_font/lv_font_unscii_8.o
 .mdebug.abi32  0xa0000544        0x0 build/default/production/lvgl/src/lv_hal/lv_hal_disp.o
 .mdebug.abi32  0xa0000544        0x0 build/default/production/lvgl/src/lv_hal/lv_hal_indev.o
 .mdebug.abi32  0xa0000544        0x0 build/default/production/lvgl/src/lv_hal/lv_hal_tick.o
 .mdebug.abi32  0xa0000544        0x0 build/default/production/lvgl/src/lv_misc/lv_anim.o
 .mdebug.abi32  0xa0000544        0x0 build/default/production/lvgl/src/lv_misc/lv_area.o
 .mdebug.abi32  0xa0000544        0x0 build/default/production/lvgl/src/lv_misc/lv_async.o
 .mdebug.abi32  0xa0000544        0x0 build/default/production/lvgl/src/lv_misc/lv_bidi.o
 .mdebug.abi32  0xa0000544        0x0 build/default/production/lvgl/src/lv_misc/lv_circ.o
 .mdebug.abi32  0xa0000544        0x0 build/default/production/lvgl/src/lv_misc/lv_color.o
 .mdebug.abi32  0xa0000544        0x0 build/default/production/lvgl/src/lv_misc/lv_fs.o
 .mdebug.abi32  0xa0000544        0x0 build/default/production/lvgl/src/lv_misc/lv_gc.o
 .mdebug.abi32  0xa0000544        0x0 build/default/production/lvgl/src/lv_misc/lv_ll.o
 .mdebug.abi32  0xa0000544        0x0 build/default/production/lvgl/src/lv_misc/lv_log.o
 .mdebug.abi32  0xa0000544        0x0 build/default/production/lvgl/src/lv_misc/lv_math.o
 .mdebug.abi32  0xa0000544        0x0 build/default/production/lvgl/src/lv_misc/lv_mem.o
 .mdebug.abi32  0xa0000544        0x0 build/default/production/lvgl/src/lv_misc/lv_printf.o
 .mdebug.abi32  0xa0000544        0x0 build/default/production/lvgl/src/lv_misc/lv_task.o
 .mdebug.abi32  0xa0000544        0x0 build/default/production/lvgl/src/lv_misc/lv_templ.o
 .mdebug.abi32  0xa0000544        0x0 build/default/production/lvgl/src/lv_misc/lv_txt.o
 .mdebug.abi32  0xa0000544        0x0 build/default/production/lvgl/src/lv_misc/lv_utils.o
 .mdebug.abi32  0xa0000544        0x0 build/default/production/lvgl/src/lv_objx/lv_arc.o
 .mdebug.abi32  0xa0000544        0x0 build/default/production/lvgl/src/lv_objx/lv_bar.o
 .mdebug.abi32  0xa0000544        0x0 build/default/production/lvgl/src/lv_objx/lv_btn.o
 .mdebug.abi32  0xa0000544        0x0 build/default/production/lvgl/src/lv_objx/lv_btnm.o
 .mdebug.abi32  0xa0000544        0x0 build/default/production/lvgl/src/lv_objx/lv_calendar.o
 .mdebug.abi32  0xa0000544        0x0 build/default/production/lvgl/src/lv_objx/lv_canvas.o
 .mdebug.abi32  0xa0000544        0x0 build/default/production/lvgl/src/lv_objx/lv_cb.o
 .mdebug.abi32  0xa0000544        0x0 build/default/production/lvgl/src/lv_objx/lv_chart.o
 .mdebug.abi32  0xa0000544        0x0 build/default/production/lvgl/src/lv_objx/lv_cont.o
 .mdebug.abi32  0xa0000544        0x0 build/default/production/lvgl/src/lv_objx/lv_cpicker.o
 .mdebug.abi32  0xa0000544        0x0 build/default/production/lvgl/src/lv_objx/lv_ddlist.o
 .mdebug.abi32  0xa0000544        0x0 build/default/production/lvgl/src/lv_objx/lv_gauge.o
 .mdebug.abi32  0xa0000544        0x0 build/default/production/lvgl/src/lv_objx/lv_img.o
 .mdebug.abi32  0xa0000544        0x0 build/default/production/lvgl/src/lv_objx/lv_imgbtn.o
 .mdebug.abi32  0xa0000544        0x0 build/default/production/lvgl/src/lv_objx/lv_kb.o
 .mdebug.abi32  0xa0000544        0x0 build/default/production/lvgl/src/lv_objx/lv_label.o
 .mdebug.abi32  0xa0000544        0x0 build/default/production/lvgl/src/lv_objx/lv_led.o
 .mdebug.abi32  0xa0000544        0x0 build/default/production/lvgl/src/lv_objx/lv_line.o
 .mdebug.abi32  0xa0000544        0x0 build/default/production/lvgl/src/lv_objx/lv_list.o
 .mdebug.abi32  0xa0000544        0x0 build/default/production/lvgl/src/lv_objx/lv_lmeter.o
 .mdebug.abi32  0xa0000544        0x0 build/default/production/lvgl/src/lv_objx/lv_mbox.o
 .mdebug.abi32  0xa0000544        0x0 build/default/production/lvgl/src/lv_objx/lv_objx_templ.o
 .mdebug.abi32  0xa0000544        0x0 build/default/production/lvgl/src/lv_objx/lv_page.o
 .mdebug.abi32  0xa0000544        0x0 build/default/production/lvgl/src/lv_objx/lv_preload.o
 .mdebug.abi32  0xa0000544        0x0 build/default/production/lvgl/src/lv_objx/lv_roller.o
 .mdebug.abi32  0xa0000544        0x0 build/default/production/lvgl/src/lv_objx/lv_slider.o
 .mdebug.abi32  0xa0000544        0x0 build/default/production/lvgl/src/lv_objx/lv_spinbox.o
 .mdebug.abi32  0xa0000544        0x0 build/default/production/lvgl/src/lv_objx/lv_sw.o
 .mdebug.abi32  0xa0000544        0x0 build/default/production/lvgl/src/lv_objx/lv_ta.o
 .mdebug.abi32  0xa0000544        0x0 build/default/production/lvgl/src/lv_objx/lv_table.o
 .mdebug.abi32  0xa0000544        0x0 build/default/production/lvgl/src/lv_objx/lv_tabview.o
 .mdebug.abi32  0xa0000544        0x0 build/default/production/lvgl/src/lv_objx/lv_tileview.o
 .mdebug.abi32  0xa0000544        0x0 build/default/production/lvgl/src/lv_objx/lv_win.o
 .mdebug.abi32  0xa0000544        0x0 build/default/production/lvgl/src/lv_themes/lv_theme.o
 .mdebug.abi32  0xa0000544        0x0 build/default/production/lvgl/src/lv_themes/lv_theme_alien.o
 .mdebug.abi32  0xa0000544        0x0 build/default/production/lvgl/src/lv_themes/lv_theme_default.o
 .mdebug.abi32  0xa0000544        0x0 build/default/production/lvgl/src/lv_themes/lv_theme_material.o
 .mdebug.abi32  0xa0000544        0x0 build/default/production/lvgl/src/lv_themes/lv_theme_mono.o
 .mdebug.abi32  0xa0000544        0x0 build/default/production/lvgl/src/lv_themes/lv_theme_nemo.o
 .mdebug.abi32  0xa0000544        0x0 build/default/production/lvgl/src/lv_themes/lv_theme_night.o
 .mdebug.abi32  0xa0000544        0x0 build/default/production/lvgl/src/lv_themes/lv_theme_templ.o
 .mdebug.abi32  0xa0000544        0x0 build/default/production/lvgl/src/lv_themes/lv_theme_zen.o
 .mdebug.abi32  0xa0000544        0x0 build/default/production/main.o
 .mdebug.abi32  0xa0000544        0x0 build/default/production/RA8875.o
 .mdebug.abi32  0xa0000544        0x0 build/default/production/delay.o
 .mdebug.abi32  0xa0000544        0x0 build/default/production/uart.o
 .mdebug.abi32  0xa0000544        0x0 d:/programas/microchip/xc32/v2.10/bin/bin/../../lib/gcc/pic32mx/4.8.3\libgcc.a(_udivdi3.o)
 .mdebug.abi32  0xa0000544        0x0 d:/programas/microchip/xc32/v2.10/bin/bin/../../lib/gcc/pic32mx/4.8.3\libgcc.a(_umoddi3.o)
 .mdebug.abi32  0xa0000544        0x0 d:/programas/microchip/xc32/v2.10/bin/bin/../../lib/gcc/pic32mx/4.8.3\libgcc.a(floatunsisf.o)
 .mdebug.abi32  0xa0000544        0x0 d:/programas/microchip/xc32/v2.10/bin/bin/../../lib/gcc/pic32mx/4.8.3/../../../../pic32mx/lib\libpic32.a(default-bootstrap-exception-handler.o)
 .mdebug.abi32  0xa0000544        0x0 d:/programas/microchip/xc32/v2.10/bin/bin/../../lib/gcc/pic32mx/4.8.3/../../../../pic32mx/lib\libpic32.a(default-on-reset.o)
 .mdebug.abi32  0xa0000544        0x0 d:/programas/microchip/xc32/v2.10/bin/bin/../../lib/gcc/pic32mx/4.8.3/../../../../pic32mx/lib\libpic32.a(default-on-bootstrap.o)
 .mdebug.abi32  0xa0000544        0x0 d:/programas/microchip/xc32/v2.10/bin/bin/../../lib/gcc/pic32mx/4.8.3/../../../../pic32mx/lib\libpic32.a(default-general-exception-handler.o)
 .mdebug.abi32  0xa0000544        0x0 d:/programas/microchip/xc32/v2.10/bin/bin/../../lib/gcc/pic32mx/4.8.3/../../../../pic32mx/lib\libpic32.a(defaultinterrupt.o)
 .mdebug.abi32  0xa0000544        0x0 d:/programas/microchip/xc32/v2.10/bin/bin/../../lib/gcc/pic32mx/4.8.3/../../../../pic32mx/lib\liblega-c.a(strncpy.o)

.mdebug.abiN32
 *(.mdebug.abiN32)

.mdebug.abi64
 *(.mdebug.abi64)

.mdebug.abiO64
 *(.mdebug.abiO64)

.mdebug.eabi32
 *(.mdebug.eabi32)

.mdebug.eabi64
 *(.mdebug.eabi64)

.gcc_compiled_long32
 *(.gcc_compiled_long32)

.gcc_compiled_long64
 *(.gcc_compiled_long64)

.stab
 *(.stab)

.stabstr
 *(.stabstr)

.stab.excl
 *(.stab.excl)

.stab.exclstr
 *(.stab.exclstr)

.stab.index
 *(.stab.index)

.stab.indexstr
 *(.stab.indexstr)

.comment        0x00000000       0xef
 *(.comment)
 .comment       0x00000000       0x3c build/default/production/lvgl/porting/lv_port_disp_template.o
                                 0x3d (size before relaxing)
 .comment       0x00000000       0x3d build/default/production/lvgl/porting/lv_port_fs_template.o
 .comment       0x00000000       0x3d build/default/production/lvgl/porting/lv_port_indev_template.o
 .comment       0x00000000       0x3d build/default/production/lvgl/src/lv_core/lv_debug.o
 .comment       0x00000000       0x3d build/default/production/lvgl/src/lv_core/lv_disp.o
 .comment       0x00000000       0x3d build/default/production/lvgl/src/lv_core/lv_group.o
 .comment       0x00000000       0x3d build/default/production/lvgl/src/lv_core/lv_indev.o
 .comment       0x00000000       0x3d build/default/production/lvgl/src/lv_core/lv_obj.o
 .comment       0x00000000       0x3d build/default/production/lvgl/src/lv_core/lv_refr.o
 .comment       0x00000000       0x3d build/default/production/lvgl/src/lv_core/lv_style.o
 .comment       0x00000000       0x3d build/default/production/lvgl/src/lv_draw/lv_draw.o
 .comment       0x00000000       0x3d build/default/production/lvgl/src/lv_draw/lv_draw_arc.o
 .comment       0x00000000       0x3d build/default/production/lvgl/src/lv_draw/lv_draw_basic.o
 .comment       0x00000000       0x3d build/default/production/lvgl/src/lv_draw/lv_draw_img.o
 .comment       0x00000000       0x3d build/default/production/lvgl/src/lv_draw/lv_draw_label.o
 .comment       0x00000000       0x3d build/default/production/lvgl/src/lv_draw/lv_draw_line.o
 .comment       0x00000000       0x3d build/default/production/lvgl/src/lv_draw/lv_draw_rect.o
 .comment       0x00000000       0x3d build/default/production/lvgl/src/lv_draw/lv_draw_triangle.o
 .comment       0x00000000       0x3d build/default/production/lvgl/src/lv_draw/lv_img_cache.o
 .comment       0x00000000       0x3d build/default/production/lvgl/src/lv_draw/lv_img_decoder.o
 .comment       0x00000000       0x3d build/default/production/lvgl/src/lv_font/lv_font.o
 .comment       0x00000000       0x3d build/default/production/lvgl/src/lv_font/lv_font_fmt_txt.o
 .comment       0x00000000       0x3d build/default/production/lvgl/src/lv_font/lv_font_roboto_12.o
 .comment       0x00000000       0x3d build/default/production/lvgl/src/lv_font/lv_font_roboto_12_subpx.o
 .comment       0x00000000       0x3d build/default/production/lvgl/src/lv_font/lv_font_roboto_16.o
 .comment       0x00000000       0x3d build/default/production/lvgl/src/lv_font/lv_font_roboto_22.o
 .comment       0x00000000       0x3d build/default/production/lvgl/src/lv_font/lv_font_roboto_28.o
 .comment       0x00000000       0x3d build/default/production/lvgl/src/lv_font/lv_font_roboto_28_compressed.o
 .comment       0x00000000       0x3d build/default/production/lvgl/src/lv_font/lv_font_unscii_8.o
 .comment       0x00000000       0x3d build/default/production/lvgl/src/lv_hal/lv_hal_disp.o
 .comment       0x00000000       0x3d build/default/production/lvgl/src/lv_hal/lv_hal_indev.o
 .comment       0x00000000       0x3d build/default/production/lvgl/src/lv_hal/lv_hal_tick.o
 .comment       0x00000000       0x3d build/default/production/lvgl/src/lv_misc/lv_anim.o
 .comment       0x00000000       0x3d build/default/production/lvgl/src/lv_misc/lv_area.o
 .comment       0x00000000       0x3d build/default/production/lvgl/src/lv_misc/lv_async.o
 .comment       0x00000000       0x3d build/default/production/lvgl/src/lv_misc/lv_bidi.o
 .comment       0x00000000       0x3d build/default/production/lvgl/src/lv_misc/lv_circ.o
 .comment       0x00000000       0x3d build/default/production/lvgl/src/lv_misc/lv_color.o
 .comment       0x00000000       0x3d build/default/production/lvgl/src/lv_misc/lv_fs.o
 .comment       0x00000000       0x3d build/default/production/lvgl/src/lv_misc/lv_gc.o
 .comment       0x00000000       0x3d build/default/production/lvgl/src/lv_misc/lv_ll.o
 .comment       0x00000000       0x3d build/default/production/lvgl/src/lv_misc/lv_log.o
 .comment       0x00000000       0x3d build/default/production/lvgl/src/lv_misc/lv_math.o
 .comment       0x00000000       0x3d build/default/production/lvgl/src/lv_misc/lv_mem.o
 .comment       0x00000000       0x3d build/default/production/lvgl/src/lv_misc/lv_printf.o
 .comment       0x00000000       0x3d build/default/production/lvgl/src/lv_misc/lv_task.o
 .comment       0x00000000       0x3d build/default/production/lvgl/src/lv_misc/lv_templ.o
 .comment       0x00000000       0x3d build/default/production/lvgl/src/lv_misc/lv_txt.o
 .comment       0x00000000       0x3d build/default/production/lvgl/src/lv_misc/lv_utils.o
 .comment       0x00000000       0x3d build/default/production/lvgl/src/lv_objx/lv_arc.o
 .comment       0x00000000       0x3d build/default/production/lvgl/src/lv_objx/lv_bar.o
 .comment       0x00000000       0x3d build/default/production/lvgl/src/lv_objx/lv_btn.o
 .comment       0x00000000       0x3d build/default/production/lvgl/src/lv_objx/lv_btnm.o
 .comment       0x00000000       0x3d build/default/production/lvgl/src/lv_objx/lv_calendar.o
 .comment       0x00000000       0x3d build/default/production/lvgl/src/lv_objx/lv_canvas.o
 .comment       0x00000000       0x3d build/default/production/lvgl/src/lv_objx/lv_cb.o
 .comment       0x00000000       0x3d build/default/production/lvgl/src/lv_objx/lv_chart.o
 .comment       0x00000000       0x3d build/default/production/lvgl/src/lv_objx/lv_cont.o
 .comment       0x00000000       0x3d build/default/production/lvgl/src/lv_objx/lv_cpicker.o
 .comment       0x00000000       0x3d build/default/production/lvgl/src/lv_objx/lv_ddlist.o
 .comment       0x00000000       0x3d build/default/production/lvgl/src/lv_objx/lv_gauge.o
 .comment       0x00000000       0x3d build/default/production/lvgl/src/lv_objx/lv_img.o
 .comment       0x00000000       0x3d build/default/production/lvgl/src/lv_objx/lv_imgbtn.o
 .comment       0x00000000       0x3d build/default/production/lvgl/src/lv_objx/lv_kb.o
 .comment       0x00000000       0x3d build/default/production/lvgl/src/lv_objx/lv_label.o
 .comment       0x00000000       0x3d build/default/production/lvgl/src/lv_objx/lv_led.o
 .comment       0x00000000       0x3d build/default/production/lvgl/src/lv_objx/lv_line.o
 .comment       0x00000000       0x3d build/default/production/lvgl/src/lv_objx/lv_list.o
 .comment       0x00000000       0x3d build/default/production/lvgl/src/lv_objx/lv_lmeter.o
 .comment       0x00000000       0x3d build/default/production/lvgl/src/lv_objx/lv_mbox.o
 .comment       0x00000000       0x3d build/default/production/lvgl/src/lv_objx/lv_objx_templ.o
 .comment       0x00000000       0x3d build/default/production/lvgl/src/lv_objx/lv_page.o
 .comment       0x00000000       0x3d build/default/production/lvgl/src/lv_objx/lv_preload.o
 .comment       0x00000000       0x3d build/default/production/lvgl/src/lv_objx/lv_roller.o
 .comment       0x00000000       0x3d build/default/production/lvgl/src/lv_objx/lv_slider.o
 .comment       0x00000000       0x3d build/default/production/lvgl/src/lv_objx/lv_spinbox.o
 .comment       0x00000000       0x3d build/default/production/lvgl/src/lv_objx/lv_sw.o
 .comment       0x00000000       0x3d build/default/production/lvgl/src/lv_objx/lv_ta.o
 .comment       0x00000000       0x3d build/default/production/lvgl/src/lv_objx/lv_table.o
 .comment       0x00000000       0x3d build/default/production/lvgl/src/lv_objx/lv_tabview.o
 .comment       0x00000000       0x3d build/default/production/lvgl/src/lv_objx/lv_tileview.o
 .comment       0x00000000       0x3d build/default/production/lvgl/src/lv_objx/lv_win.o
 .comment       0x00000000       0x3d build/default/production/lvgl/src/lv_themes/lv_theme.o
 .comment       0x00000000       0x3d build/default/production/lvgl/src/lv_themes/lv_theme_alien.o
 .comment       0x00000000       0x3d build/default/production/lvgl/src/lv_themes/lv_theme_default.o
 .comment       0x00000000       0x3d build/default/production/lvgl/src/lv_themes/lv_theme_material.o
 .comment       0x00000000       0x3d build/default/production/lvgl/src/lv_themes/lv_theme_mono.o
 .comment       0x00000000       0x3d build/default/production/lvgl/src/lv_themes/lv_theme_nemo.o
 .comment       0x00000000       0x3d build/default/production/lvgl/src/lv_themes/lv_theme_night.o
 .comment       0x00000000       0x3d build/default/production/lvgl/src/lv_themes/lv_theme_templ.o
 .comment       0x00000000       0x3d build/default/production/lvgl/src/lv_themes/lv_theme_zen.o
 .comment       0x00000000       0x3d build/default/production/main.o
 .comment       0x00000000       0x3d build/default/production/RA8875.o
 .comment       0x00000000       0x3d build/default/production/delay.o
 .comment       0x00000000       0x3d build/default/production/uart.o
 .comment       0x00000000       0x3d d:/programas/microchip/xc32/v2.10/bin/bin/../../lib/gcc/pic32mx/4.8.3\libgcc.a(_udivdi3.o)
 .comment       0x00000000       0x3d d:/programas/microchip/xc32/v2.10/bin/bin/../../lib/gcc/pic32mx/4.8.3\libgcc.a(_umoddi3.o)
 .comment       0x00000000       0x3d d:/programas/microchip/xc32/v2.10/bin/bin/../../lib/gcc/pic32mx/4.8.3\libgcc.a(floatunsisf.o)
 .comment       0x0000003c       0x18 d:/programas/microchip/xc32/v2.10/bin/bin/../../lib/gcc/pic32mx/4.8.3/../../../../pic32mx/lib\libpic32.a(memset.o)
                                 0x19 (size before relaxing)
 .comment       0x00000054       0x19 d:/programas/microchip/xc32/v2.10/bin/bin/../../lib/gcc/pic32mx/4.8.3/../../../../pic32mx/lib\libpic32.a(strcmp.o)
                                 0x1a (size before relaxing)
 .comment       0x0000006d       0x19 d:/programas/microchip/xc32/v2.10/bin/bin/../../lib/gcc/pic32mx/4.8.3/../../../../pic32mx/lib\libpic32.a(strcpy.o)
                                 0x1a (size before relaxing)
 .comment       0x00000086       0x19 d:/programas/microchip/xc32/v2.10/bin/bin/../../lib/gcc/pic32mx/4.8.3/../../../../pic32mx/lib\libpic32.a(strlen.o)
                                 0x1a (size before relaxing)
 .comment       0x00000000       0x3d d:/programas/microchip/xc32/v2.10/bin/bin/../../lib/gcc/pic32mx/4.8.3/../../../../pic32mx/lib\libpic32.a(default-bootstrap-exception-handler.o)
 .comment       0x00000000       0x3d d:/programas/microchip/xc32/v2.10/bin/bin/../../lib/gcc/pic32mx/4.8.3/../../../../pic32mx/lib\libpic32.a(default-on-reset.o)
 .comment       0x00000000       0x3d d:/programas/microchip/xc32/v2.10/bin/bin/../../lib/gcc/pic32mx/4.8.3/../../../../pic32mx/lib\libpic32.a(default-on-bootstrap.o)
 .comment       0x00000000       0x3d d:/programas/microchip/xc32/v2.10/bin/bin/../../lib/gcc/pic32mx/4.8.3/../../../../pic32mx/lib\libpic32.a(default-general-exception-handler.o)
 .comment       0x00000000       0x3d d:/programas/microchip/xc32/v2.10/bin/bin/../../lib/gcc/pic32mx/4.8.3/../../../../pic32mx/lib\libpic32.a(defaultinterrupt.o)
 .comment       0x0000009f       0x50 d:/programas/microchip/xc32/v2.10/bin/bin/../../lib/gcc/pic32mx/4.8.3/../../../../pic32mx/lib\liblega-c.a(strncpy.o)
                                 0x8d (size before relaxing)

.debug
 *(.debug)

.line
 *(.line)

.debug_srcinfo
 *(.debug_srcinfo)

.debug_sfnames
 *(.debug_sfnames)

.debug_aranges  0x00000000      0xc30
 *(.debug_aranges)
 .debug_aranges
                0x00000000       0x18 build/default/production/lvgl/porting/lv_port_disp_template.o
 .debug_aranges
                0x00000018       0x18 build/default/production/lvgl/porting/lv_port_fs_template.o
 .debug_aranges
                0x00000030       0x18 build/default/production/lvgl/porting/lv_port_indev_template.o
 .debug_aranges
                0x00000048       0x20 build/default/production/lvgl/src/lv_core/lv_debug.o
 .debug_aranges
                0x00000068       0x20 build/default/production/lvgl/src/lv_core/lv_disp.o
 .debug_aranges
                0x00000088       0x20 build/default/production/lvgl/src/lv_core/lv_group.o
 .debug_aranges
                0x000000a8       0x20 build/default/production/lvgl/src/lv_core/lv_indev.o
 .debug_aranges
                0x000000c8       0x20 build/default/production/lvgl/src/lv_core/lv_obj.o
 .debug_aranges
                0x000000e8       0x20 build/default/production/lvgl/src/lv_core/lv_refr.o
 .debug_aranges
                0x00000108       0x20 build/default/production/lvgl/src/lv_core/lv_style.o
 .debug_aranges
                0x00000128       0x20 build/default/production/lvgl/src/lv_draw/lv_draw.o
 .debug_aranges
                0x00000148       0x20 build/default/production/lvgl/src/lv_draw/lv_draw_arc.o
 .debug_aranges
                0x00000168       0x20 build/default/production/lvgl/src/lv_draw/lv_draw_basic.o
 .debug_aranges
                0x00000188       0x20 build/default/production/lvgl/src/lv_draw/lv_draw_img.o
 .debug_aranges
                0x000001a8       0x20 build/default/production/lvgl/src/lv_draw/lv_draw_label.o
 .debug_aranges
                0x000001c8       0x20 build/default/production/lvgl/src/lv_draw/lv_draw_line.o
 .debug_aranges
                0x000001e8       0x20 build/default/production/lvgl/src/lv_draw/lv_draw_rect.o
 .debug_aranges
                0x00000208       0x20 build/default/production/lvgl/src/lv_draw/lv_draw_triangle.o
 .debug_aranges
                0x00000228       0x20 build/default/production/lvgl/src/lv_draw/lv_img_cache.o
 .debug_aranges
                0x00000248       0x20 build/default/production/lvgl/src/lv_draw/lv_img_decoder.o
 .debug_aranges
                0x00000268       0x20 build/default/production/lvgl/src/lv_font/lv_font.o
 .debug_aranges
                0x00000288       0x20 build/default/production/lvgl/src/lv_font/lv_font_fmt_txt.o
 .debug_aranges
                0x000002a8       0x18 build/default/production/lvgl/src/lv_font/lv_font_roboto_12.o
 .debug_aranges
                0x000002c0       0x18 build/default/production/lvgl/src/lv_font/lv_font_roboto_12_subpx.o
 .debug_aranges
                0x000002d8       0x18 build/default/production/lvgl/src/lv_font/lv_font_roboto_16.o
 .debug_aranges
                0x000002f0       0x18 build/default/production/lvgl/src/lv_font/lv_font_roboto_22.o
 .debug_aranges
                0x00000308       0x18 build/default/production/lvgl/src/lv_font/lv_font_roboto_28.o
 .debug_aranges
                0x00000320       0x18 build/default/production/lvgl/src/lv_font/lv_font_roboto_28_compressed.o
 .debug_aranges
                0x00000338       0x18 build/default/production/lvgl/src/lv_font/lv_font_unscii_8.o
 .debug_aranges
                0x00000350       0x20 build/default/production/lvgl/src/lv_hal/lv_hal_disp.o
 .debug_aranges
                0x00000370       0x20 build/default/production/lvgl/src/lv_hal/lv_hal_indev.o
 .debug_aranges
                0x00000390       0x20 build/default/production/lvgl/src/lv_hal/lv_hal_tick.o
 .debug_aranges
                0x000003b0       0x20 build/default/production/lvgl/src/lv_misc/lv_anim.o
 .debug_aranges
                0x000003d0       0x20 build/default/production/lvgl/src/lv_misc/lv_area.o
 .debug_aranges
                0x000003f0       0x20 build/default/production/lvgl/src/lv_misc/lv_async.o
 .debug_aranges
                0x00000410       0x18 build/default/production/lvgl/src/lv_misc/lv_bidi.o
 .debug_aranges
                0x00000428       0x20 build/default/production/lvgl/src/lv_misc/lv_circ.o
 .debug_aranges
                0x00000448       0x20 build/default/production/lvgl/src/lv_misc/lv_color.o
 .debug_aranges
                0x00000468       0x20 build/default/production/lvgl/src/lv_misc/lv_fs.o
 .debug_aranges
                0x00000488       0x20 build/default/production/lvgl/src/lv_misc/lv_gc.o
 .debug_aranges
                0x000004a8       0x20 build/default/production/lvgl/src/lv_misc/lv_ll.o
 .debug_aranges
                0x000004c8       0x18 build/default/production/lvgl/src/lv_misc/lv_log.o
 .debug_aranges
                0x000004e0       0x20 build/default/production/lvgl/src/lv_misc/lv_math.o
 .debug_aranges
                0x00000500       0x20 build/default/production/lvgl/src/lv_misc/lv_mem.o
 .debug_aranges
                0x00000520       0x20 build/default/production/lvgl/src/lv_misc/lv_printf.o
 .debug_aranges
                0x00000540       0x20 build/default/production/lvgl/src/lv_misc/lv_task.o
 .debug_aranges
                0x00000560       0x18 build/default/production/lvgl/src/lv_misc/lv_templ.o
 .debug_aranges
                0x00000578       0x20 build/default/production/lvgl/src/lv_misc/lv_txt.o
 .debug_aranges
                0x00000598       0x20 build/default/production/lvgl/src/lv_misc/lv_utils.o
 .debug_aranges
                0x000005b8       0x20 build/default/production/lvgl/src/lv_objx/lv_arc.o
 .debug_aranges
                0x000005d8       0x20 build/default/production/lvgl/src/lv_objx/lv_bar.o
 .debug_aranges
                0x000005f8       0x20 build/default/production/lvgl/src/lv_objx/lv_btn.o
 .debug_aranges
                0x00000618       0x20 build/default/production/lvgl/src/lv_objx/lv_btnm.o
 .debug_aranges
                0x00000638       0x20 build/default/production/lvgl/src/lv_objx/lv_calendar.o
 .debug_aranges
                0x00000658       0x20 build/default/production/lvgl/src/lv_objx/lv_canvas.o
 .debug_aranges
                0x00000678       0x20 build/default/production/lvgl/src/lv_objx/lv_cb.o
 .debug_aranges
                0x00000698       0x20 build/default/production/lvgl/src/lv_objx/lv_chart.o
 .debug_aranges
                0x000006b8       0x20 build/default/production/lvgl/src/lv_objx/lv_cont.o
 .debug_aranges
                0x000006d8       0x20 build/default/production/lvgl/src/lv_objx/lv_cpicker.o
 .debug_aranges
                0x000006f8       0x20 build/default/production/lvgl/src/lv_objx/lv_ddlist.o
 .debug_aranges
                0x00000718       0x20 build/default/production/lvgl/src/lv_objx/lv_gauge.o
 .debug_aranges
                0x00000738       0x20 build/default/production/lvgl/src/lv_objx/lv_img.o
 .debug_aranges
                0x00000758       0x20 build/default/production/lvgl/src/lv_objx/lv_imgbtn.o
 .debug_aranges
                0x00000778       0x20 build/default/production/lvgl/src/lv_objx/lv_kb.o
 .debug_aranges
                0x00000798       0x20 build/default/production/lvgl/src/lv_objx/lv_label.o
 .debug_aranges
                0x000007b8       0x20 build/default/production/lvgl/src/lv_objx/lv_led.o
 .debug_aranges
                0x000007d8       0x20 build/default/production/lvgl/src/lv_objx/lv_line.o
 .debug_aranges
                0x000007f8       0x20 build/default/production/lvgl/src/lv_objx/lv_list.o
 .debug_aranges
                0x00000818       0x20 build/default/production/lvgl/src/lv_objx/lv_lmeter.o
 .debug_aranges
                0x00000838       0x20 build/default/production/lvgl/src/lv_objx/lv_mbox.o
 .debug_aranges
                0x00000858       0x18 build/default/production/lvgl/src/lv_objx/lv_objx_templ.o
 .debug_aranges
                0x00000870       0x20 build/default/production/lvgl/src/lv_objx/lv_page.o
 .debug_aranges
                0x00000890       0x20 build/default/production/lvgl/src/lv_objx/lv_preload.o
 .debug_aranges
                0x000008b0       0x20 build/default/production/lvgl/src/lv_objx/lv_roller.o
 .debug_aranges
                0x000008d0       0x20 build/default/production/lvgl/src/lv_objx/lv_slider.o
 .debug_aranges
                0x000008f0       0x20 build/default/production/lvgl/src/lv_objx/lv_spinbox.o
 .debug_aranges
                0x00000910       0x20 build/default/production/lvgl/src/lv_objx/lv_sw.o
 .debug_aranges
                0x00000930       0x20 build/default/production/lvgl/src/lv_objx/lv_ta.o
 .debug_aranges
                0x00000950       0x20 build/default/production/lvgl/src/lv_objx/lv_table.o
 .debug_aranges
                0x00000970       0x20 build/default/production/lvgl/src/lv_objx/lv_tabview.o
 .debug_aranges
                0x00000990       0x20 build/default/production/lvgl/src/lv_objx/lv_tileview.o
 .debug_aranges
                0x000009b0       0x20 build/default/production/lvgl/src/lv_objx/lv_win.o
 .debug_aranges
                0x000009d0       0x20 build/default/production/lvgl/src/lv_themes/lv_theme.o
 .debug_aranges
                0x000009f0       0x18 build/default/production/lvgl/src/lv_themes/lv_theme_alien.o
 .debug_aranges
                0x00000a08       0x18 build/default/production/lvgl/src/lv_themes/lv_theme_default.o
 .debug_aranges
                0x00000a20       0x18 build/default/production/lvgl/src/lv_themes/lv_theme_material.o
 .debug_aranges
                0x00000a38       0x18 build/default/production/lvgl/src/lv_themes/lv_theme_mono.o
 .debug_aranges
                0x00000a50       0x18 build/default/production/lvgl/src/lv_themes/lv_theme_nemo.o
 .debug_aranges
                0x00000a68       0x18 build/default/production/lvgl/src/lv_themes/lv_theme_night.o
 .debug_aranges
                0x00000a80       0x18 build/default/production/lvgl/src/lv_themes/lv_theme_templ.o
 .debug_aranges
                0x00000a98       0x18 build/default/production/lvgl/src/lv_themes/lv_theme_zen.o
 .debug_aranges
                0x00000ab0       0x20 build/default/production/main.o
 .debug_aranges
                0x00000ad0       0x20 build/default/production/RA8875.o
 .debug_aranges
                0x00000af0       0x20 build/default/production/delay.o
 .debug_aranges
                0x00000b10       0x20 build/default/production/uart.o
 .debug_aranges
                0x00000b30       0x20 d:/programas/microchip/xc32/v2.10/bin/bin/../../lib/gcc/pic32mx/4.8.3\libgcc.a(_udivdi3.o)
 .debug_aranges
                0x00000b50       0x20 d:/programas/microchip/xc32/v2.10/bin/bin/../../lib/gcc/pic32mx/4.8.3\libgcc.a(_umoddi3.o)
 .debug_aranges
                0x00000b70       0x20 d:/programas/microchip/xc32/v2.10/bin/bin/../../lib/gcc/pic32mx/4.8.3\libgcc.a(floatunsisf.o)
 .debug_aranges
                0x00000b90       0x20 d:/programas/microchip/xc32/v2.10/bin/bin/../../lib/gcc/pic32mx/4.8.3/../../../../pic32mx/lib\libpic32.a(default-bootstrap-exception-handler.o)
 .debug_aranges
                0x00000bb0       0x20 d:/programas/microchip/xc32/v2.10/bin/bin/../../lib/gcc/pic32mx/4.8.3/../../../../pic32mx/lib\libpic32.a(default-on-reset.o)
 .debug_aranges
                0x00000bd0       0x20 d:/programas/microchip/xc32/v2.10/bin/bin/../../lib/gcc/pic32mx/4.8.3/../../../../pic32mx/lib\libpic32.a(default-on-bootstrap.o)
 .debug_aranges
                0x00000bf0       0x20 d:/programas/microchip/xc32/v2.10/bin/bin/../../lib/gcc/pic32mx/4.8.3/../../../../pic32mx/lib\libpic32.a(default-general-exception-handler.o)
 .debug_aranges
                0x00000c10       0x20 d:/programas/microchip/xc32/v2.10/bin/bin/../../lib/gcc/pic32mx/4.8.3/../../../../pic32mx/lib\libpic32.a(defaultinterrupt.o)

.debug_pubnames
 *(.debug_pubnames)

.debug_info     0x00000000    0xc52f9
 *(.debug_info .gnu.linkonce.wi.*)
 .debug_info    0x00000000       0xad build/default/production/lvgl/porting/lv_port_disp_template.o
 .debug_info    0x000000ad       0xab build/default/production/lvgl/porting/lv_port_fs_template.o
 .debug_info    0x00000158       0xae build/default/production/lvgl/porting/lv_port_indev_template.o
 .debug_info    0x00000206     0x1595 build/default/production/lvgl/src/lv_core/lv_debug.o
 .debug_info    0x0000179b     0x13d1 build/default/production/lvgl/src/lv_core/lv_disp.o
 .debug_info    0x00002b6c     0x314c build/default/production/lvgl/src/lv_core/lv_group.o
 .debug_info    0x00005cb8     0x4077 build/default/production/lvgl/src/lv_core/lv_indev.o
 .debug_info    0x00009d2f     0x7c2d build/default/production/lvgl/src/lv_core/lv_obj.o
 .debug_info    0x0001195c     0x2392 build/default/production/lvgl/src/lv_core/lv_refr.o
 .debug_info    0x00013cee     0x1466 build/default/production/lvgl/src/lv_core/lv_style.o
 .debug_info    0x00015154      0x364 build/default/production/lvgl/src/lv_draw/lv_draw.o
 .debug_info    0x000154b8     0x1113 build/default/production/lvgl/src/lv_draw/lv_draw_arc.o
 .debug_info    0x000165cb     0x22b3 build/default/production/lvgl/src/lv_draw/lv_draw_basic.o
 .debug_info    0x0001887e     0x23c2 build/default/production/lvgl/src/lv_draw/lv_draw_img.o
 .debug_info    0x0001ac40     0x1395 build/default/production/lvgl/src/lv_draw/lv_draw_label.o
 .debug_info    0x0001bfd5     0x114b build/default/production/lvgl/src/lv_draw/lv_draw_line.o
 .debug_info    0x0001d120     0x344f build/default/production/lvgl/src/lv_draw/lv_draw_rect.o
 .debug_info    0x0002056f      0xed7 build/default/production/lvgl/src/lv_draw/lv_draw_triangle.o
 .debug_info    0x00021446     0x1014 build/default/production/lvgl/src/lv_draw/lv_img_cache.o
 .debug_info    0x0002245a     0x2951 build/default/production/lvgl/src/lv_draw/lv_img_decoder.o
 .debug_info    0x00024dab      0x4c1 build/default/production/lvgl/src/lv_font/lv_font.o
 .debug_info    0x0002526c     0x1675 build/default/production/lvgl/src/lv_font/lv_font_fmt_txt.o
 .debug_info    0x000268e1      0x169 build/default/production/lvgl/src/lv_font/lv_font_roboto_12.o
 .debug_info    0x00026a4a      0x9c5 build/default/production/lvgl/src/lv_font/lv_font_roboto_12_subpx.o
 .debug_info    0x0002740f      0x9b9 build/default/production/lvgl/src/lv_font/lv_font_roboto_16.o
 .debug_info    0x00027dc8      0x169 build/default/production/lvgl/src/lv_font/lv_font_roboto_22.o
 .debug_info    0x00027f31      0x169 build/default/production/lvgl/src/lv_font/lv_font_roboto_28.o
 .debug_info    0x0002809a      0x9cf build/default/production/lvgl/src/lv_font/lv_font_roboto_28_compressed.o
 .debug_info    0x00028a69      0x168 build/default/production/lvgl/src/lv_font/lv_font_unscii_8.o
 .debug_info    0x00028bd1     0x1f95 build/default/production/lvgl/src/lv_hal/lv_hal_disp.o
 .debug_info    0x0002ab66     0x1af7 build/default/production/lvgl/src/lv_hal/lv_hal_indev.o
 .debug_info    0x0002c65d      0x270 build/default/production/lvgl/src/lv_hal/lv_hal_tick.o
 .debug_info    0x0002c8cd      0xfe7 build/default/production/lvgl/src/lv_misc/lv_anim.o
 .debug_info    0x0002d8b4      0x6cf build/default/production/lvgl/src/lv_misc/lv_area.o
 .debug_info    0x0002df83      0x53b build/default/production/lvgl/src/lv_misc/lv_async.o
 .debug_info    0x0002e4be      0x153 build/default/production/lvgl/src/lv_misc/lv_bidi.o
 .debug_info    0x0002e611      0x26a build/default/production/lvgl/src/lv_misc/lv_circ.o
 .debug_info    0x0002e87b      0x5af build/default/production/lvgl/src/lv_misc/lv_color.o
 .debug_info    0x0002ee2a     0x13e2 build/default/production/lvgl/src/lv_misc/lv_fs.o
 .debug_info    0x0003020c      0xc37 build/default/production/lvgl/src/lv_misc/lv_gc.o
 .debug_info    0x00030e43      0xcc0 build/default/production/lvgl/src/lv_misc/lv_ll.o
 .debug_info    0x00031b03      0x120 build/default/production/lvgl/src/lv_misc/lv_log.o
 .debug_info    0x00031c23      0x3f1 build/default/production/lvgl/src/lv_misc/lv_math.o
 .debug_info    0x00032014      0x8b8 build/default/production/lvgl/src/lv_misc/lv_mem.o
 .debug_info    0x000328cc     0x149a build/default/production/lvgl/src/lv_misc/lv_printf.o
 .debug_info    0x00033d66      0xd03 build/default/production/lvgl/src/lv_misc/lv_task.o
 .debug_info    0x00034a69       0xa4 build/default/production/lvgl/src/lv_misc/lv_templ.o
 .debug_info    0x00034b0d     0x1352 build/default/production/lvgl/src/lv_misc/lv_txt.o
 .debug_info    0x00035e5f      0x304 build/default/production/lvgl/src/lv_misc/lv_utils.o
 .debug_info    0x00036163     0x25ed build/default/production/lvgl/src/lv_objx/lv_arc.o
 .debug_info    0x00038750     0x3176 build/default/production/lvgl/src/lv_objx/lv_bar.o
 .debug_info    0x0003b8c6     0x3963 build/default/production/lvgl/src/lv_objx/lv_btn.o
 .debug_info    0x0003f229     0x5728 build/default/production/lvgl/src/lv_objx/lv_btnm.o
 .debug_info    0x00044951     0x5022 build/default/production/lvgl/src/lv_objx/lv_calendar.o
 .debug_info    0x00049973     0x4241 build/default/production/lvgl/src/lv_objx/lv_canvas.o
 .debug_info    0x0004dbb4     0x339d build/default/production/lvgl/src/lv_objx/lv_cb.o
 .debug_info    0x00050f51     0x627c build/default/production/lvgl/src/lv_objx/lv_chart.o
 .debug_info    0x000571cd     0x3d8d build/default/production/lvgl/src/lv_objx/lv_cont.o
 .debug_info    0x0005af5a     0x53b1 build/default/production/lvgl/src/lv_objx/lv_cpicker.o
 .debug_info    0x0006030b     0x6516 build/default/production/lvgl/src/lv_objx/lv_ddlist.o
 .debug_info    0x00066821     0x3658 build/default/production/lvgl/src/lv_objx/lv_gauge.o
 .debug_info    0x00069e79     0x265b build/default/production/lvgl/src/lv_objx/lv_img.o
 .debug_info    0x0006c4d4     0x236d build/default/production/lvgl/src/lv_objx/lv_imgbtn.o
 .debug_info    0x0006e841     0x39e1 build/default/production/lvgl/src/lv_objx/lv_kb.o
 .debug_info    0x00072222     0x4e8c build/default/production/lvgl/src/lv_objx/lv_label.o
 .debug_info    0x000770ae     0x247d build/default/production/lvgl/src/lv_objx/lv_led.o
 .debug_info    0x0007952b     0x1c04 build/default/production/lvgl/src/lv_objx/lv_line.o
 .debug_info    0x0007b12f     0x6782 build/default/production/lvgl/src/lv_objx/lv_list.o
 .debug_info    0x000818b1     0x2c74 build/default/production/lvgl/src/lv_objx/lv_lmeter.o
 .debug_info    0x00084525     0x4c09 build/default/production/lvgl/src/lv_objx/lv_mbox.o
 .debug_info    0x0008912e      0x165 build/default/production/lvgl/src/lv_objx/lv_objx_templ.o
 .debug_info    0x00089293     0x5e51 build/default/production/lvgl/src/lv_objx/lv_page.o
 .debug_info    0x0008f0e4     0x2deb build/default/production/lvgl/src/lv_objx/lv_preload.o
 .debug_info    0x00091ecf     0x5851 build/default/production/lvgl/src/lv_objx/lv_roller.o
 .debug_info    0x00097720     0x4308 build/default/production/lvgl/src/lv_objx/lv_slider.o
 .debug_info    0x0009ba28     0x3b6a build/default/production/lvgl/src/lv_objx/lv_spinbox.o
 .debug_info    0x0009f592     0x3a8a build/default/production/lvgl/src/lv_objx/lv_sw.o
 .debug_info    0x000a301c     0x8497 build/default/production/lvgl/src/lv_objx/lv_ta.o
 .debug_info    0x000ab4b3     0x3c6d build/default/production/lvgl/src/lv_objx/lv_table.o
 .debug_info    0x000af120     0x698b build/default/production/lvgl/src/lv_objx/lv_tabview.o
 .debug_info    0x000b5aab     0x411d build/default/production/lvgl/src/lv_objx/lv_tileview.o
 .debug_info    0x000b9bc8     0x43dd build/default/production/lvgl/src/lv_objx/lv_win.o
 .debug_info    0x000bdfa5     0x17c1 build/default/production/lvgl/src/lv_themes/lv_theme.o
 .debug_info    0x000bf766      0x168 build/default/production/lvgl/src/lv_themes/lv_theme_alien.o
 .debug_info    0x000bf8ce      0x16a build/default/production/lvgl/src/lv_themes/lv_theme_default.o
 .debug_info    0x000bfa38      0x16b build/default/production/lvgl/src/lv_themes/lv_theme_material.o
 .debug_info    0x000bfba3      0x167 build/default/production/lvgl/src/lv_themes/lv_theme_mono.o
 .debug_info    0x000bfd0a      0x167 build/default/production/lvgl/src/lv_themes/lv_theme_nemo.o
 .debug_info    0x000bfe71      0x168 build/default/production/lvgl/src/lv_themes/lv_theme_night.o
 .debug_info    0x000bffd9      0x168 build/default/production/lvgl/src/lv_themes/lv_theme_templ.o
 .debug_info    0x000c0141      0x166 build/default/production/lvgl/src/lv_themes/lv_theme_zen.o
 .debug_info    0x000c02a7     0x22c1 build/default/production/main.o
 .debug_info    0x000c2568     0x10e6 build/default/production/RA8875.o
 .debug_info    0x000c364e      0x19c build/default/production/delay.o
 .debug_info    0x000c37ea      0x67f build/default/production/uart.o
 .debug_info    0x000c3e69      0x762 d:/programas/microchip/xc32/v2.10/bin/bin/../../lib/gcc/pic32mx/4.8.3\libgcc.a(_udivdi3.o)
 .debug_info    0x000c45cb      0x79f d:/programas/microchip/xc32/v2.10/bin/bin/../../lib/gcc/pic32mx/4.8.3\libgcc.a(_umoddi3.o)
 .debug_info    0x000c4d6a      0x12c d:/programas/microchip/xc32/v2.10/bin/bin/../../lib/gcc/pic32mx/4.8.3\libgcc.a(floatunsisf.o)
 .debug_info    0x000c4e96       0xf2 d:/programas/microchip/xc32/v2.10/bin/bin/../../lib/gcc/pic32mx/4.8.3/../../../../pic32mx/lib\libpic32.a(default-bootstrap-exception-handler.o)
 .debug_info    0x000c4f88       0xcb d:/programas/microchip/xc32/v2.10/bin/bin/../../lib/gcc/pic32mx/4.8.3/../../../../pic32mx/lib\libpic32.a(default-on-reset.o)
 .debug_info    0x000c5053       0xd3 d:/programas/microchip/xc32/v2.10/bin/bin/../../lib/gcc/pic32mx/4.8.3/../../../../pic32mx/lib\libpic32.a(default-on-bootstrap.o)
 .debug_info    0x000c5126       0xee d:/programas/microchip/xc32/v2.10/bin/bin/../../lib/gcc/pic32mx/4.8.3/../../../../pic32mx/lib\libpic32.a(default-general-exception-handler.o)
 .debug_info    0x000c5214       0xe5 d:/programas/microchip/xc32/v2.10/bin/bin/../../lib/gcc/pic32mx/4.8.3/../../../../pic32mx/lib\libpic32.a(defaultinterrupt.o)

.debug_abbrev   0x00000000     0xe405
 *(.debug_abbrev)
 .debug_abbrev  0x00000000       0x1b build/default/production/lvgl/porting/lv_port_disp_template.o
 .debug_abbrev  0x0000001b       0x1b build/default/production/lvgl/porting/lv_port_fs_template.o
 .debug_abbrev  0x00000036       0x1b build/default/production/lvgl/porting/lv_port_indev_template.o
 .debug_abbrev  0x00000051      0x24b build/default/production/lvgl/src/lv_core/lv_debug.o
 .debug_abbrev  0x0000029c      0x1fe build/default/production/lvgl/src/lv_core/lv_disp.o
 .debug_abbrev  0x0000049a      0x37d build/default/production/lvgl/src/lv_core/lv_group.o
 .debug_abbrev  0x00000817      0x414 build/default/production/lvgl/src/lv_core/lv_indev.o
 .debug_abbrev  0x00000c2b      0x44e build/default/production/lvgl/src/lv_core/lv_obj.o
 .debug_abbrev  0x00001079      0x42b build/default/production/lvgl/src/lv_core/lv_refr.o
 .debug_abbrev  0x000014a4      0x2b9 build/default/production/lvgl/src/lv_core/lv_style.o
 .debug_abbrev  0x0000175d      0x11c build/default/production/lvgl/src/lv_draw/lv_draw.o
 .debug_abbrev  0x00001879      0x279 build/default/production/lvgl/src/lv_draw/lv_draw_arc.o
 .debug_abbrev  0x00001af2      0x3ba build/default/production/lvgl/src/lv_draw/lv_draw_basic.o
 .debug_abbrev  0x00001eac      0x3e5 build/default/production/lvgl/src/lv_draw/lv_draw_img.o
 .debug_abbrev  0x00002291      0x295 build/default/production/lvgl/src/lv_draw/lv_draw_label.o
 .debug_abbrev  0x00002526      0x2f5 build/default/production/lvgl/src/lv_draw/lv_draw_line.o
 .debug_abbrev  0x0000281b      0x337 build/default/production/lvgl/src/lv_draw/lv_draw_rect.o
 .debug_abbrev  0x00002b52      0x229 build/default/production/lvgl/src/lv_draw/lv_draw_triangle.o
 .debug_abbrev  0x00002d7b      0x225 build/default/production/lvgl/src/lv_draw/lv_img_cache.o
 .debug_abbrev  0x00002fa0      0x3ce build/default/production/lvgl/src/lv_draw/lv_img_decoder.o
 .debug_abbrev  0x0000336e      0x127 build/default/production/lvgl/src/lv_font/lv_font.o
 .debug_abbrev  0x00003495      0x304 build/default/production/lvgl/src/lv_font/lv_font_fmt_txt.o
 .debug_abbrev  0x00003799       0x1b build/default/production/lvgl/src/lv_font/lv_font_roboto_12.o
 .debug_abbrev  0x000037b4      0x129 build/default/production/lvgl/src/lv_font/lv_font_roboto_12_subpx.o
 .debug_abbrev  0x000038dd      0x129 build/default/production/lvgl/src/lv_font/lv_font_roboto_16.o
 .debug_abbrev  0x00003a06       0x1b build/default/production/lvgl/src/lv_font/lv_font_roboto_22.o
 .debug_abbrev  0x00003a21       0x1b build/default/production/lvgl/src/lv_font/lv_font_roboto_28.o
 .debug_abbrev  0x00003a3c      0x129 build/default/production/lvgl/src/lv_font/lv_font_roboto_28_compressed.o
 .debug_abbrev  0x00003b65       0x1b build/default/production/lvgl/src/lv_font/lv_font_unscii_8.o
 .debug_abbrev  0x00003b80      0x394 build/default/production/lvgl/src/lv_hal/lv_hal_disp.o
 .debug_abbrev  0x00003f14      0x266 build/default/production/lvgl/src/lv_hal/lv_hal_indev.o
 .debug_abbrev  0x0000417a       0xa1 build/default/production/lvgl/src/lv_hal/lv_hal_tick.o
 .debug_abbrev  0x0000421b      0x2e5 build/default/production/lvgl/src/lv_misc/lv_anim.o
 .debug_abbrev  0x00004500      0x16a build/default/production/lvgl/src/lv_misc/lv_area.o
 .debug_abbrev  0x0000466a      0x172 build/default/production/lvgl/src/lv_misc/lv_async.o
 .debug_abbrev  0x000047dc       0x1b build/default/production/lvgl/src/lv_misc/lv_bidi.o
 .debug_abbrev  0x000047f7       0xbd build/default/production/lvgl/src/lv_misc/lv_circ.o
 .debug_abbrev  0x000048b4      0x18f build/default/production/lvgl/src/lv_misc/lv_color.o
 .debug_abbrev  0x00004a43      0x2c7 build/default/production/lvgl/src/lv_misc/lv_fs.o
 .debug_abbrev  0x00004d0a      0x102 build/default/production/lvgl/src/lv_misc/lv_gc.o
 .debug_abbrev  0x00004e0c      0x27b build/default/production/lvgl/src/lv_misc/lv_ll.o
 .debug_abbrev  0x00005087       0x1b build/default/production/lvgl/src/lv_misc/lv_log.o
 .debug_abbrev  0x000050a2       0x9d build/default/production/lvgl/src/lv_misc/lv_math.o
 .debug_abbrev  0x0000513f      0x25b build/default/production/lvgl/src/lv_misc/lv_mem.o
 .debug_abbrev  0x0000539a      0x2bc build/default/production/lvgl/src/lv_misc/lv_printf.o
 .debug_abbrev  0x00005656      0x2ea build/default/production/lvgl/src/lv_misc/lv_task.o
 .debug_abbrev  0x00005940       0x1b build/default/production/lvgl/src/lv_misc/lv_templ.o
 .debug_abbrev  0x0000595b      0x33b build/default/production/lvgl/src/lv_misc/lv_txt.o
 .debug_abbrev  0x00005c96       0xbb build/default/production/lvgl/src/lv_misc/lv_utils.o
 .debug_abbrev  0x00005d51      0x2df build/default/production/lvgl/src/lv_objx/lv_arc.o
 .debug_abbrev  0x00006030      0x35e build/default/production/lvgl/src/lv_objx/lv_bar.o
 .debug_abbrev  0x0000638e      0x387 build/default/production/lvgl/src/lv_objx/lv_btn.o
 .debug_abbrev  0x00006715      0x4a6 build/default/production/lvgl/src/lv_objx/lv_btnm.o
 .debug_abbrev  0x00006bbb      0x446 build/default/production/lvgl/src/lv_objx/lv_calendar.o
 .debug_abbrev  0x00007001      0x3f1 build/default/production/lvgl/src/lv_objx/lv_canvas.o
 .debug_abbrev  0x000073f2      0x35b build/default/production/lvgl/src/lv_objx/lv_cb.o
 .debug_abbrev  0x0000774d      0x48a build/default/production/lvgl/src/lv_objx/lv_chart.o
 .debug_abbrev  0x00007bd7      0x3de build/default/production/lvgl/src/lv_objx/lv_cont.o
 .debug_abbrev  0x00007fb5      0x469 build/default/production/lvgl/src/lv_objx/lv_cpicker.o
 .debug_abbrev  0x0000841e      0x49d build/default/production/lvgl/src/lv_objx/lv_ddlist.o
 .debug_abbrev  0x000088bb      0x3ed build/default/production/lvgl/src/lv_objx/lv_gauge.o
 .debug_abbrev  0x00008ca8      0x32a build/default/production/lvgl/src/lv_objx/lv_img.o
 .debug_abbrev  0x00008fd2      0x337 build/default/production/lvgl/src/lv_objx/lv_imgbtn.o
 .debug_abbrev  0x00009309      0x2f0 build/default/production/lvgl/src/lv_objx/lv_kb.o
 .debug_abbrev  0x000095f9      0x45a build/default/production/lvgl/src/lv_objx/lv_label.o
 .debug_abbrev  0x00009a53      0x32e build/default/production/lvgl/src/lv_objx/lv_led.o
 .debug_abbrev  0x00009d81      0x313 build/default/production/lvgl/src/lv_objx/lv_line.o
 .debug_abbrev  0x0000a094      0x495 build/default/production/lvgl/src/lv_objx/lv_list.o
 .debug_abbrev  0x0000a529      0x3d7 build/default/production/lvgl/src/lv_objx/lv_lmeter.o
 .debug_abbrev  0x0000a900      0x3d3 build/default/production/lvgl/src/lv_objx/lv_mbox.o
 .debug_abbrev  0x0000acd3       0x1b build/default/production/lvgl/src/lv_objx/lv_objx_templ.o
 .debug_abbrev  0x0000acee      0x41b build/default/production/lvgl/src/lv_objx/lv_page.o
 .debug_abbrev  0x0000b109      0x32b build/default/production/lvgl/src/lv_objx/lv_preload.o
 .debug_abbrev  0x0000b434      0x459 build/default/production/lvgl/src/lv_objx/lv_roller.o
 .debug_abbrev  0x0000b88d      0x3dd build/default/production/lvgl/src/lv_objx/lv_slider.o
 .debug_abbrev  0x0000bc6a      0x385 build/default/production/lvgl/src/lv_objx/lv_spinbox.o
 .debug_abbrev  0x0000bfef      0x388 build/default/production/lvgl/src/lv_objx/lv_sw.o
 .debug_abbrev  0x0000c377      0x4fa build/default/production/lvgl/src/lv_objx/lv_ta.o
 .debug_abbrev  0x0000c871      0x3d6 build/default/production/lvgl/src/lv_objx/lv_table.o
 .debug_abbrev  0x0000cc47      0x443 build/default/production/lvgl/src/lv_objx/lv_tabview.o
 .debug_abbrev  0x0000d08a      0x442 build/default/production/lvgl/src/lv_objx/lv_tileview.o
 .debug_abbrev  0x0000d4cc      0x387 build/default/production/lvgl/src/lv_objx/lv_win.o
 .debug_abbrev  0x0000d853      0x195 build/default/production/lvgl/src/lv_themes/lv_theme.o
 .debug_abbrev  0x0000d9e8       0x1b build/default/production/lvgl/src/lv_themes/lv_theme_alien.o
 .debug_abbrev  0x0000da03       0x1b build/default/production/lvgl/src/lv_themes/lv_theme_default.o
 .debug_abbrev  0x0000da1e       0x1b build/default/production/lvgl/src/lv_themes/lv_theme_material.o
 .debug_abbrev  0x0000da39       0x1b build/default/production/lvgl/src/lv_themes/lv_theme_mono.o
 .debug_abbrev  0x0000da54       0x1b build/default/production/lvgl/src/lv_themes/lv_theme_nemo.o
 .debug_abbrev  0x0000da6f       0x1b build/default/production/lvgl/src/lv_themes/lv_theme_night.o
 .debug_abbrev  0x0000da8a       0x1b build/default/production/lvgl/src/lv_themes/lv_theme_templ.o
 .debug_abbrev  0x0000daa5       0x1b build/default/production/lvgl/src/lv_themes/lv_theme_zen.o
 .debug_abbrev  0x0000dac0      0x282 build/default/production/main.o
 .debug_abbrev  0x0000dd42      0x1bc build/default/production/RA8875.o
 .debug_abbrev  0x0000defe       0x77 build/default/production/delay.o
 .debug_abbrev  0x0000df75       0xe7 build/default/production/uart.o
 .debug_abbrev  0x0000e05c      0x138 d:/programas/microchip/xc32/v2.10/bin/bin/../../lib/gcc/pic32mx/4.8.3\libgcc.a(_udivdi3.o)
 .debug_abbrev  0x0000e194      0x147 d:/programas/microchip/xc32/v2.10/bin/bin/../../lib/gcc/pic32mx/4.8.3\libgcc.a(_umoddi3.o)
 .debug_abbrev  0x0000e2db       0x62 d:/programas/microchip/xc32/v2.10/bin/bin/../../lib/gcc/pic32mx/4.8.3\libgcc.a(floatunsisf.o)
 .debug_abbrev  0x0000e33d       0x28 d:/programas/microchip/xc32/v2.10/bin/bin/../../lib/gcc/pic32mx/4.8.3/../../../../pic32mx/lib\libpic32.a(default-bootstrap-exception-handler.o)
 .debug_abbrev  0x0000e365       0x28 d:/programas/microchip/xc32/v2.10/bin/bin/../../lib/gcc/pic32mx/4.8.3/../../../../pic32mx/lib\libpic32.a(default-on-reset.o)
 .debug_abbrev  0x0000e38d       0x28 d:/programas/microchip/xc32/v2.10/bin/bin/../../lib/gcc/pic32mx/4.8.3/../../../../pic32mx/lib\libpic32.a(default-on-bootstrap.o)
 .debug_abbrev  0x0000e3b5       0x28 d:/programas/microchip/xc32/v2.10/bin/bin/../../lib/gcc/pic32mx/4.8.3/../../../../pic32mx/lib\libpic32.a(default-general-exception-handler.o)
 .debug_abbrev  0x0000e3dd       0x28 d:/programas/microchip/xc32/v2.10/bin/bin/../../lib/gcc/pic32mx/4.8.3/../../../../pic32mx/lib\libpic32.a(defaultinterrupt.o)

.debug_line     0x00000000    0x16772
 *(.debug_line)
 .debug_line    0x00000000       0x1d build/default/production/lvgl/porting/lv_port_disp_template.o
 .debug_line    0x0000001d       0x1d build/default/production/lvgl/porting/lv_port_fs_template.o
 .debug_line    0x0000003a       0x1d build/default/production/lvgl/porting/lv_port_indev_template.o
 .debug_line    0x00000057      0x380 build/default/production/lvgl/src/lv_core/lv_debug.o
 .debug_line    0x000003d7      0x316 build/default/production/lvgl/src/lv_core/lv_disp.o
 .debug_line    0x000006ed      0x51a build/default/production/lvgl/src/lv_core/lv_group.o
 .debug_line    0x00000c07      0x625 build/default/production/lvgl/src/lv_core/lv_indev.o
 .debug_line    0x0000122c      0xb2e build/default/production/lvgl/src/lv_core/lv_obj.o
 .debug_line    0x00001d5a      0x4ee build/default/production/lvgl/src/lv_core/lv_refr.o
 .debug_line    0x00002248      0x431 build/default/production/lvgl/src/lv_core/lv_style.o
 .debug_line    0x00002679      0x214 build/default/production/lvgl/src/lv_draw/lv_draw.o
 .debug_line    0x0000288d      0x33e build/default/production/lvgl/src/lv_draw/lv_draw_arc.o
 .debug_line    0x00002bcb      0x623 build/default/production/lvgl/src/lv_draw/lv_draw_basic.o
 .debug_line    0x000031ee      0x526 build/default/production/lvgl/src/lv_draw/lv_draw_img.o
 .debug_line    0x00003714      0x3fd build/default/production/lvgl/src/lv_draw/lv_draw_label.o
 .debug_line    0x00003b11      0x3e3 build/default/production/lvgl/src/lv_draw/lv_draw_line.o
 .debug_line    0x00003ef4      0x7d1 build/default/production/lvgl/src/lv_draw/lv_draw_rect.o
 .debug_line    0x000046c5      0x3f4 build/default/production/lvgl/src/lv_draw/lv_draw_triangle.o
 .debug_line    0x00004ab9      0x404 build/default/production/lvgl/src/lv_draw/lv_img_cache.o
 .debug_line    0x00004ebd      0x521 build/default/production/lvgl/src/lv_draw/lv_img_decoder.o
 .debug_line    0x000053de       0xfd build/default/production/lvgl/src/lv_font/lv_font.o
 .debug_line    0x000054db      0x44f build/default/production/lvgl/src/lv_font/lv_font_fmt_txt.o
 .debug_line    0x0000592a       0x1d build/default/production/lvgl/src/lv_font/lv_font_roboto_12.o
 .debug_line    0x00005947      0x16c build/default/production/lvgl/src/lv_font/lv_font_roboto_12_subpx.o
 .debug_line    0x00005ab3      0x166 build/default/production/lvgl/src/lv_font/lv_font_roboto_16.o
 .debug_line    0x00005c19       0x1d build/default/production/lvgl/src/lv_font/lv_font_roboto_22.o
 .debug_line    0x00005c36       0x1d build/default/production/lvgl/src/lv_font/lv_font_roboto_28.o
 .debug_line    0x00005c53      0x171 build/default/production/lvgl/src/lv_font/lv_font_roboto_28_compressed.o
 .debug_line    0x00005dc4       0x1d build/default/production/lvgl/src/lv_font/lv_font_unscii_8.o
 .debug_line    0x00005de1      0x3ad build/default/production/lvgl/src/lv_hal/lv_hal_disp.o
 .debug_line    0x0000618e      0x34a build/default/production/lvgl/src/lv_hal/lv_hal_indev.o
 .debug_line    0x000064d8       0xf2 build/default/production/lvgl/src/lv_hal/lv_hal_tick.o
 .debug_line    0x000065ca      0x356 build/default/production/lvgl/src/lv_misc/lv_anim.o
 .debug_line    0x00006920      0x1a5 build/default/production/lvgl/src/lv_misc/lv_area.o
 .debug_line    0x00006ac5      0x178 build/default/production/lvgl/src/lv_misc/lv_async.o
 .debug_line    0x00006c3d       0x1d build/default/production/lvgl/src/lv_misc/lv_bidi.o
 .debug_line    0x00006c5a      0x155 build/default/production/lvgl/src/lv_misc/lv_circ.o
 .debug_line    0x00006daf      0x18b build/default/production/lvgl/src/lv_misc/lv_color.o
 .debug_line    0x00006f3a      0x344 build/default/production/lvgl/src/lv_misc/lv_fs.o
 .debug_line    0x0000727e      0x2af build/default/production/lvgl/src/lv_misc/lv_gc.o
 .debug_line    0x0000752d      0x22c build/default/production/lvgl/src/lv_misc/lv_ll.o
 .debug_line    0x00007759       0x1d build/default/production/lvgl/src/lv_misc/lv_log.o
 .debug_line    0x00007776      0x141 build/default/production/lvgl/src/lv_misc/lv_math.o
 .debug_line    0x000078b7      0x1ea build/default/production/lvgl/src/lv_misc/lv_mem.o
 .debug_line    0x00007aa1      0x3df build/default/production/lvgl/src/lv_misc/lv_printf.o
 .debug_line    0x00007e80      0x2bb build/default/production/lvgl/src/lv_misc/lv_task.o
 .debug_line    0x0000813b       0x1d build/default/production/lvgl/src/lv_misc/lv_templ.o
 .debug_line    0x00008158      0x3c1 build/default/production/lvgl/src/lv_misc/lv_txt.o
 .debug_line    0x00008519      0x110 build/default/production/lvgl/src/lv_misc/lv_utils.o
 .debug_line    0x00008629      0x479 build/default/production/lvgl/src/lv_objx/lv_arc.o
 .debug_line    0x00008aa2      0x529 build/default/production/lvgl/src/lv_objx/lv_bar.o
 .debug_line    0x00008fcb      0x53e build/default/production/lvgl/src/lv_objx/lv_btn.o
 .debug_line    0x00009509      0x8b3 build/default/production/lvgl/src/lv_objx/lv_btnm.o
 .debug_line    0x00009dbc      0x81f build/default/production/lvgl/src/lv_objx/lv_calendar.o
 .debug_line    0x0000a5db      0x75e build/default/production/lvgl/src/lv_objx/lv_canvas.o
 .debug_line    0x0000ad39      0x45b build/default/production/lvgl/src/lv_objx/lv_cb.o
 .debug_line    0x0000b194      0xa16 build/default/production/lvgl/src/lv_objx/lv_chart.o
 .debug_line    0x0000bbaa      0x5a4 build/default/production/lvgl/src/lv_objx/lv_cont.o
 .debug_line    0x0000c14e      0x81b build/default/production/lvgl/src/lv_objx/lv_cpicker.o
 .debug_line    0x0000c969      0x873 build/default/production/lvgl/src/lv_objx/lv_ddlist.o
 .debug_line    0x0000d1dc      0x606 build/default/production/lvgl/src/lv_objx/lv_gauge.o
 .debug_line    0x0000d7e2      0x4e7 build/default/production/lvgl/src/lv_objx/lv_img.o
 .debug_line    0x0000dcc9      0x47c build/default/production/lvgl/src/lv_objx/lv_imgbtn.o
 .debug_line    0x0000e145      0x4dd build/default/production/lvgl/src/lv_objx/lv_kb.o
 .debug_line    0x0000e622      0x84f build/default/production/lvgl/src/lv_objx/lv_label.o
 .debug_line    0x0000ee71      0x3fc build/default/production/lvgl/src/lv_objx/lv_led.o
 .debug_line    0x0000f26d      0x423 build/default/production/lvgl/src/lv_objx/lv_line.o
 .debug_line    0x0000f690      0x850 build/default/production/lvgl/src/lv_objx/lv_list.o
 .debug_line    0x0000fee0      0x4e4 build/default/production/lvgl/src/lv_objx/lv_lmeter.o
 .debug_line    0x000103c4      0x5c6 build/default/production/lvgl/src/lv_objx/lv_mbox.o
 .debug_line    0x0001098a       0x1d build/default/production/lvgl/src/lv_objx/lv_objx_templ.o
 .debug_line    0x000109a7      0x8c2 build/default/production/lvgl/src/lv_objx/lv_page.o
 .debug_line    0x00011269      0x4de build/default/production/lvgl/src/lv_objx/lv_preload.o
 .debug_line    0x00011747      0x7a7 build/default/production/lvgl/src/lv_objx/lv_roller.o
 .debug_line    0x00011eee      0x6c7 build/default/production/lvgl/src/lv_objx/lv_slider.o
 .debug_line    0x000125b5      0x5a4 build/default/production/lvgl/src/lv_objx/lv_spinbox.o
 .debug_line    0x00012b59      0x57f build/default/production/lvgl/src/lv_objx/lv_sw.o
 .debug_line    0x000130d8      0xb2e build/default/production/lvgl/src/lv_objx/lv_ta.o
 .debug_line    0x00013c06      0x709 build/default/production/lvgl/src/lv_objx/lv_table.o
 .debug_line    0x0001430f      0x860 build/default/production/lvgl/src/lv_objx/lv_tabview.o
 .debug_line    0x00014b6f      0x5a1 build/default/production/lvgl/src/lv_objx/lv_tileview.o
 .debug_line    0x00015110      0x571 build/default/production/lvgl/src/lv_objx/lv_win.o
 .debug_line    0x00015681      0x2d8 build/default/production/lvgl/src/lv_themes/lv_theme.o
 .debug_line    0x00015959       0x1d build/default/production/lvgl/src/lv_themes/lv_theme_alien.o
 .debug_line    0x00015976       0x1d build/default/production/lvgl/src/lv_themes/lv_theme_default.o
 .debug_line    0x00015993       0x1d build/default/production/lvgl/src/lv_themes/lv_theme_material.o
 .debug_line    0x000159b0       0x1d build/default/production/lvgl/src/lv_themes/lv_theme_mono.o
 .debug_line    0x000159cd       0x1d build/default/production/lvgl/src/lv_themes/lv_theme_nemo.o
 .debug_line    0x000159ea       0x1d build/default/production/lvgl/src/lv_themes/lv_theme_night.o
 .debug_line    0x00015a07       0x1d build/default/production/lvgl/src/lv_themes/lv_theme_templ.o
 .debug_line    0x00015a24       0x1d build/default/production/lvgl/src/lv_themes/lv_theme_zen.o
 .debug_line    0x00015a41      0x37b build/default/production/main.o
 .debug_line    0x00015dbc      0x23d build/default/production/RA8875.o
 .debug_line    0x00015ff9       0x8d build/default/production/delay.o
 .debug_line    0x00016086      0x140 build/default/production/uart.o
 .debug_line    0x000161c6       0xfa d:/programas/microchip/xc32/v2.10/bin/bin/../../lib/gcc/pic32mx/4.8.3\libgcc.a(_udivdi3.o)
 .debug_line    0x000162c0      0x10c d:/programas/microchip/xc32/v2.10/bin/bin/../../lib/gcc/pic32mx/4.8.3\libgcc.a(_umoddi3.o)
 .debug_line    0x000163cc       0x97 d:/programas/microchip/xc32/v2.10/bin/bin/../../lib/gcc/pic32mx/4.8.3\libgcc.a(floatunsisf.o)
 .debug_line    0x00016463       0xa4 d:/programas/microchip/xc32/v2.10/bin/bin/../../lib/gcc/pic32mx/4.8.3/../../../../pic32mx/lib\libpic32.a(default-bootstrap-exception-handler.o)
 .debug_line    0x00016507       0x91 d:/programas/microchip/xc32/v2.10/bin/bin/../../lib/gcc/pic32mx/4.8.3/../../../../pic32mx/lib\libpic32.a(default-on-reset.o)
 .debug_line    0x00016598       0x95 d:/programas/microchip/xc32/v2.10/bin/bin/../../lib/gcc/pic32mx/4.8.3/../../../../pic32mx/lib\libpic32.a(default-on-bootstrap.o)
 .debug_line    0x0001662d       0xa2 d:/programas/microchip/xc32/v2.10/bin/bin/../../lib/gcc/pic32mx/4.8.3/../../../../pic32mx/lib\libpic32.a(default-general-exception-handler.o)
 .debug_line    0x000166cf       0xa3 d:/programas/microchip/xc32/v2.10/bin/bin/../../lib/gcc/pic32mx/4.8.3/../../../../pic32mx/lib\libpic32.a(defaultinterrupt.o)

.debug_frame    0x00000000     0x7394
 *(.debug_frame)
 .debug_frame   0x00000000       0xb4 build/default/production/lvgl/src/lv_core/lv_debug.o
 .debug_frame   0x000000b4       0xe4 build/default/production/lvgl/src/lv_core/lv_disp.o
 .debug_frame   0x00000198      0x2f8 build/default/production/lvgl/src/lv_core/lv_group.o
 .debug_frame   0x00000490      0x200 build/default/production/lvgl/src/lv_core/lv_indev.o
 .debug_frame   0x00000690      0xa5c build/default/production/lvgl/src/lv_core/lv_obj.o
 .debug_frame   0x000010ec      0x130 build/default/production/lvgl/src/lv_core/lv_refr.o
 .debug_frame   0x0000121c       0xb4 build/default/production/lvgl/src/lv_core/lv_style.o
 .debug_frame   0x000012d0       0x40 build/default/production/lvgl/src/lv_draw/lv_draw.o
 .debug_frame   0x00001310       0x74 build/default/production/lvgl/src/lv_draw/lv_draw_arc.o
 .debug_frame   0x00001384       0xd4 build/default/production/lvgl/src/lv_draw/lv_draw_basic.o
 .debug_frame   0x00001458      0x150 build/default/production/lvgl/src/lv_draw/lv_draw_img.o
 .debug_frame   0x000015a8       0x4c build/default/production/lvgl/src/lv_draw/lv_draw_label.o
 .debug_frame   0x000015f4       0x58 build/default/production/lvgl/src/lv_draw/lv_draw_line.o
 .debug_frame   0x0000164c       0x58 build/default/production/lvgl/src/lv_draw/lv_draw_rect.o
 .debug_frame   0x000016a4       0xa4 build/default/production/lvgl/src/lv_draw/lv_draw_triangle.o
 .debug_frame   0x00001748       0x70 build/default/production/lvgl/src/lv_draw/lv_img_cache.o
 .debug_frame   0x000017b8      0x1e8 build/default/production/lvgl/src/lv_draw/lv_img_decoder.o
 .debug_frame   0x000019a0       0x58 build/default/production/lvgl/src/lv_font/lv_font.o
 .debug_frame   0x000019f8       0xfc build/default/production/lvgl/src/lv_font/lv_font_fmt_txt.o
 .debug_frame   0x00001af4      0x174 build/default/production/lvgl/src/lv_hal/lv_hal_disp.o
 .debug_frame   0x00001c68       0x88 build/default/production/lvgl/src/lv_hal/lv_hal_indev.o
 .debug_frame   0x00001cf0       0x48 build/default/production/lvgl/src/lv_hal/lv_hal_tick.o
 .debug_frame   0x00001d38      0x16c build/default/production/lvgl/src/lv_misc/lv_anim.o
 .debug_frame   0x00001ea4       0xc0 build/default/production/lvgl/src/lv_misc/lv_area.o
 .debug_frame   0x00001f64       0x44 build/default/production/lvgl/src/lv_misc/lv_async.o
 .debug_frame   0x00001fa8       0x40 build/default/production/lvgl/src/lv_misc/lv_circ.o
 .debug_frame   0x00001fe8       0x48 build/default/production/lvgl/src/lv_misc/lv_color.o
 .debug_frame   0x00002030      0x2b4 build/default/production/lvgl/src/lv_misc/lv_fs.o
 .debug_frame   0x000022e4       0x20 build/default/production/lvgl/src/lv_misc/lv_gc.o
 .debug_frame   0x00002304      0x188 build/default/production/lvgl/src/lv_misc/lv_ll.o
 .debug_frame   0x0000248c       0x50 build/default/production/lvgl/src/lv_misc/lv_math.o
 .debug_frame   0x000024dc       0xec build/default/production/lvgl/src/lv_misc/lv_mem.o
 .debug_frame   0x000025c8      0x15c build/default/production/lvgl/src/lv_misc/lv_printf.o
 .debug_frame   0x00002724      0x154 build/default/production/lvgl/src/lv_misc/lv_task.o
 .debug_frame   0x00002878      0x1a4 build/default/production/lvgl/src/lv_misc/lv_txt.o
 .debug_frame   0x00002a1c       0x44 build/default/production/lvgl/src/lv_misc/lv_utils.o
 .debug_frame   0x00002a60      0x12c build/default/production/lvgl/src/lv_objx/lv_arc.o
 .debug_frame   0x00002b8c      0x1c0 build/default/production/lvgl/src/lv_objx/lv_bar.o
 .debug_frame   0x00002d4c      0x1b4 build/default/production/lvgl/src/lv_objx/lv_btn.o
 .debug_frame   0x00002f00      0x304 build/default/production/lvgl/src/lv_objx/lv_btnm.o
 .debug_frame   0x00003204      0x23c build/default/production/lvgl/src/lv_objx/lv_calendar.o
 .debug_frame   0x00003440      0x268 build/default/production/lvgl/src/lv_objx/lv_canvas.o
 .debug_frame   0x000036a8      0x118 build/default/production/lvgl/src/lv_objx/lv_cb.o
 .debug_frame   0x000037c0      0x408 build/default/production/lvgl/src/lv_objx/lv_chart.o
 .debug_frame   0x00003bc8      0x150 build/default/production/lvgl/src/lv_objx/lv_cont.o
 .debug_frame   0x00003d18      0x370 build/default/production/lvgl/src/lv_objx/lv_cpicker.o
 .debug_frame   0x00004088      0x364 build/default/production/lvgl/src/lv_objx/lv_ddlist.o
 .debug_frame   0x000043ec      0x120 build/default/production/lvgl/src/lv_objx/lv_gauge.o
 .debug_frame   0x0000450c      0x160 build/default/production/lvgl/src/lv_objx/lv_img.o
 .debug_frame   0x0000466c      0x100 build/default/production/lvgl/src/lv_objx/lv_imgbtn.o
 .debug_frame   0x0000476c      0x138 build/default/production/lvgl/src/lv_objx/lv_kb.o
 .debug_frame   0x000048a4      0x404 build/default/production/lvgl/src/lv_objx/lv_label.o
 .debug_frame   0x00004ca8       0xe4 build/default/production/lvgl/src/lv_objx/lv_led.o
 .debug_frame   0x00004d8c      0x124 build/default/production/lvgl/src/lv_objx/lv_line.o
 .debug_frame   0x00004eb0      0x308 build/default/production/lvgl/src/lv_objx/lv_list.o
 .debug_frame   0x000051b8      0x188 build/default/production/lvgl/src/lv_objx/lv_lmeter.o
 .debug_frame   0x00005340      0x22c build/default/production/lvgl/src/lv_objx/lv_mbox.o
 .debug_frame   0x0000556c      0x358 build/default/production/lvgl/src/lv_objx/lv_page.o
 .debug_frame   0x000058c4      0x1b8 build/default/production/lvgl/src/lv_objx/lv_preload.o
 .debug_frame   0x00005a7c      0x234 build/default/production/lvgl/src/lv_objx/lv_roller.o
 .debug_frame   0x00005cb0      0x14c build/default/production/lvgl/src/lv_objx/lv_slider.o
 .debug_frame   0x00005dfc      0x178 build/default/production/lvgl/src/lv_objx/lv_spinbox.o
 .debug_frame   0x00005f74      0x110 build/default/production/lvgl/src/lv_objx/lv_sw.o
 .debug_frame   0x00006084      0x5d0 build/default/production/lvgl/src/lv_objx/lv_ta.o
 .debug_frame   0x00006654      0x2c8 build/default/production/lvgl/src/lv_objx/lv_table.o
 .debug_frame   0x0000691c      0x2cc build/default/production/lvgl/src/lv_objx/lv_tabview.o
 .debug_frame   0x00006be8      0x128 build/default/production/lvgl/src/lv_objx/lv_tileview.o
 .debug_frame   0x00006d10      0x2a8 build/default/production/lvgl/src/lv_objx/lv_win.o
 .debug_frame   0x00006fb8       0x38 build/default/production/lvgl/src/lv_themes/lv_theme.o
 .debug_frame   0x00006ff0       0xbc build/default/production/main.o
 .debug_frame   0x000070ac      0x13c build/default/production/RA8875.o
 .debug_frame   0x000071e8       0x44 build/default/production/delay.o
 .debug_frame   0x0000722c       0x48 build/default/production/uart.o
 .debug_frame   0x00007274       0x20 d:/programas/microchip/xc32/v2.10/bin/bin/../../lib/gcc/pic32mx/4.8.3\libgcc.a(_udivdi3.o)
 .debug_frame   0x00007294       0x20 d:/programas/microchip/xc32/v2.10/bin/bin/../../lib/gcc/pic32mx/4.8.3\libgcc.a(_umoddi3.o)
 .debug_frame   0x000072b4       0x28 d:/programas/microchip/xc32/v2.10/bin/bin/../../lib/gcc/pic32mx/4.8.3\libgcc.a(floatunsisf.o)
 .debug_frame   0x000072dc       0x2c d:/programas/microchip/xc32/v2.10/bin/bin/../../lib/gcc/pic32mx/4.8.3/../../../../pic32mx/lib\libpic32.a(default-bootstrap-exception-handler.o)
 .debug_frame   0x00007308       0x20 d:/programas/microchip/xc32/v2.10/bin/bin/../../lib/gcc/pic32mx/4.8.3/../../../../pic32mx/lib\libpic32.a(default-on-reset.o)
 .debug_frame   0x00007328       0x20 d:/programas/microchip/xc32/v2.10/bin/bin/../../lib/gcc/pic32mx/4.8.3/../../../../pic32mx/lib\libpic32.a(default-on-bootstrap.o)
 .debug_frame   0x00007348       0x2c d:/programas/microchip/xc32/v2.10/bin/bin/../../lib/gcc/pic32mx/4.8.3/../../../../pic32mx/lib\libpic32.a(default-general-exception-handler.o)
 .debug_frame   0x00007374       0x20 d:/programas/microchip/xc32/v2.10/bin/bin/../../lib/gcc/pic32mx/4.8.3/../../../../pic32mx/lib\libpic32.a(defaultinterrupt.o)

.debug_str      0x00000000     0x124b
 *(.debug_str)
 .debug_str     0x00000000        0x0 build/default/production/lvgl/porting/lv_port_disp_template.o
 .debug_str     0x00000000        0x0 build/default/production/lvgl/porting/lv_port_fs_template.o
 .debug_str     0x00000000        0x0 build/default/production/lvgl/porting/lv_port_indev_template.o
 .debug_str     0x00000000        0x6 build/default/production/lvgl/src/lv_core/lv_debug.o
 .debug_str     0x00000006        0xb build/default/production/lvgl/src/lv_core/lv_disp.o
 .debug_str     0x00000011       0x4f build/default/production/lvgl/src/lv_core/lv_group.o
 .debug_str     0x00000060       0x4f build/default/production/lvgl/src/lv_core/lv_indev.o
 .debug_str     0x000000af       0xb4 build/default/production/lvgl/src/lv_core/lv_obj.o
 .debug_str     0x00000163        0xd build/default/production/lvgl/src/lv_core/lv_refr.o
 .debug_str     0x00000170       0x15 build/default/production/lvgl/src/lv_core/lv_style.o
 .debug_str     0x00000185        0x0 build/default/production/lvgl/src/lv_draw/lv_draw.o
 .debug_str     0x00000185        0x6 build/default/production/lvgl/src/lv_draw/lv_draw_arc.o
 .debug_str     0x0000018b       0x40 build/default/production/lvgl/src/lv_draw/lv_draw_basic.o
 .debug_str     0x000001cb       0x3c build/default/production/lvgl/src/lv_draw/lv_draw_img.o
 .debug_str     0x00000207       0x1d build/default/production/lvgl/src/lv_draw/lv_draw_label.o
 .debug_str     0x00000224       0x44 build/default/production/lvgl/src/lv_draw/lv_draw_line.o
 .debug_str     0x00000268       0xb3 build/default/production/lvgl/src/lv_draw/lv_draw_rect.o
 .debug_str     0x0000031b       0x42 build/default/production/lvgl/src/lv_draw/lv_draw_triangle.o
 .debug_str     0x0000035d        0xf build/default/production/lvgl/src/lv_draw/lv_img_cache.o
 .debug_str     0x0000036c       0x57 build/default/production/lvgl/src/lv_draw/lv_img_decoder.o
 .debug_str     0x000003c3       0x13 build/default/production/lvgl/src/lv_font/lv_font.o
 .debug_str     0x000003d6       0x33 build/default/production/lvgl/src/lv_font/lv_font_fmt_txt.o
 .debug_str     0x00000409        0x0 build/default/production/lvgl/src/lv_font/lv_font_roboto_12.o
 .debug_str     0x00000409       0x17 build/default/production/lvgl/src/lv_font/lv_font_roboto_12_subpx.o
 .debug_str     0x00000420       0x17 build/default/production/lvgl/src/lv_font/lv_font_roboto_16.o
 .debug_str     0x00000437        0x0 build/default/production/lvgl/src/lv_font/lv_font_roboto_22.o
 .debug_str     0x00000437        0x0 build/default/production/lvgl/src/lv_font/lv_font_roboto_28.o
 .debug_str     0x00000437       0x17 build/default/production/lvgl/src/lv_font/lv_font_roboto_28_compressed.o
 .debug_str     0x0000044e        0x0 build/default/production/lvgl/src/lv_font/lv_font_unscii_8.o
 .debug_str     0x0000044e       0x1d build/default/production/lvgl/src/lv_hal/lv_hal_disp.o
 .debug_str     0x0000046b       0x1e build/default/production/lvgl/src/lv_hal/lv_hal_indev.o
 .debug_str     0x00000489        0x0 build/default/production/lvgl/src/lv_hal/lv_hal_tick.o
 .debug_str     0x00000489        0xf build/default/production/lvgl/src/lv_misc/lv_anim.o
 .debug_str     0x00000498        0x7 build/default/production/lvgl/src/lv_misc/lv_area.o
 .debug_str     0x0000049f        0xa build/default/production/lvgl/src/lv_misc/lv_async.o
 .debug_str     0x000004a9        0x0 build/default/production/lvgl/src/lv_misc/lv_bidi.o
 .debug_str     0x000004a9        0x0 build/default/production/lvgl/src/lv_misc/lv_circ.o
 .debug_str     0x000004a9        0x0 build/default/production/lvgl/src/lv_misc/lv_color.o
 .debug_str     0x000004a9       0x25 build/default/production/lvgl/src/lv_misc/lv_fs.o
 .debug_str     0x000004ce        0x6 build/default/production/lvgl/src/lv_misc/lv_gc.o
 .debug_str     0x000004d4       0x17 build/default/production/lvgl/src/lv_misc/lv_ll.o
 .debug_str     0x000004eb        0x0 build/default/production/lvgl/src/lv_misc/lv_log.o
 .debug_str     0x000004eb        0x0 build/default/production/lvgl/src/lv_misc/lv_math.o
 .debug_str     0x000004eb        0x0 build/default/production/lvgl/src/lv_misc/lv_mem.o
 .debug_str     0x000004eb       0x49 build/default/production/lvgl/src/lv_misc/lv_printf.o
 .debug_str     0x00000534       0x27 build/default/production/lvgl/src/lv_misc/lv_task.o
 .debug_str     0x0000055b        0x0 build/default/production/lvgl/src/lv_misc/lv_templ.o
 .debug_str     0x0000055b       0x34 build/default/production/lvgl/src/lv_misc/lv_txt.o
 .debug_str     0x0000058f        0x0 build/default/production/lvgl/src/lv_misc/lv_utils.o
 .debug_str     0x0000058f       0x2b build/default/production/lvgl/src/lv_objx/lv_arc.o
 .debug_str     0x000005ba       0x4e build/default/production/lvgl/src/lv_objx/lv_bar.o
 .debug_str     0x00000608       0x33 build/default/production/lvgl/src/lv_objx/lv_btn.o
 .debug_str     0x0000063b       0x98 build/default/production/lvgl/src/lv_objx/lv_btnm.o
 .debug_str     0x000006d3       0x85 build/default/production/lvgl/src/lv_objx/lv_calendar.o
 .debug_str     0x00000758       0x4e build/default/production/lvgl/src/lv_objx/lv_canvas.o
 .debug_str     0x000007a6       0x1b build/default/production/lvgl/src/lv_objx/lv_cb.o
 .debug_str     0x000007c1       0xe1 build/default/production/lvgl/src/lv_objx/lv_chart.o
 .debug_str     0x000008a2       0x44 build/default/production/lvgl/src/lv_objx/lv_cont.o
 .debug_str     0x000008e6       0x7a build/default/production/lvgl/src/lv_objx/lv_cpicker.o
 .debug_str     0x00000960       0x7b build/default/production/lvgl/src/lv_objx/lv_ddlist.o
 .debug_str     0x000009db       0x61 build/default/production/lvgl/src/lv_objx/lv_gauge.o
 .debug_str     0x00000a3c       0x22 build/default/production/lvgl/src/lv_objx/lv_img.o
 .debug_str     0x00000a5e       0x26 build/default/production/lvgl/src/lv_objx/lv_imgbtn.o
 .debug_str     0x00000a84       0x24 build/default/production/lvgl/src/lv_objx/lv_kb.o
 .debug_str     0x00000aa8       0x9b build/default/production/lvgl/src/lv_objx/lv_label.o
 .debug_str     0x00000b43       0x22 build/default/production/lvgl/src/lv_objx/lv_led.o
 .debug_str     0x00000b65       0x1f build/default/production/lvgl/src/lv_objx/lv_line.o
 .debug_str     0x00000b84       0x63 build/default/production/lvgl/src/lv_objx/lv_list.o
 .debug_str     0x00000be7       0x4f build/default/production/lvgl/src/lv_objx/lv_lmeter.o
 .debug_str     0x00000c36       0x49 build/default/production/lvgl/src/lv_objx/lv_mbox.o
 .debug_str     0x00000c7f        0x0 build/default/production/lvgl/src/lv_objx/lv_objx_templ.o
 .debug_str     0x00000c7f       0xb2 build/default/production/lvgl/src/lv_objx/lv_page.o
 .debug_str     0x00000d31       0x3f build/default/production/lvgl/src/lv_objx/lv_preload.o
 .debug_str     0x00000d70       0xbc build/default/production/lvgl/src/lv_objx/lv_roller.o
 .debug_str     0x00000e2c       0x9b build/default/production/lvgl/src/lv_objx/lv_slider.o
 .debug_str     0x00000ec7       0x6a build/default/production/lvgl/src/lv_objx/lv_spinbox.o
 .debug_str     0x00000f31       0x4d build/default/production/lvgl/src/lv_objx/lv_sw.o
 .debug_str     0x00000f7e       0xf8 build/default/production/lvgl/src/lv_objx/lv_ta.o
 .debug_str     0x00001076       0x7d build/default/production/lvgl/src/lv_objx/lv_table.o
 .debug_str     0x000010f3       0xa0 build/default/production/lvgl/src/lv_objx/lv_tabview.o
 .debug_str     0x00001193       0x63 build/default/production/lvgl/src/lv_objx/lv_tileview.o
 .debug_str     0x000011f6       0x22 build/default/production/lvgl/src/lv_objx/lv_win.o
 .debug_str     0x00001218       0x1b build/default/production/lvgl/src/lv_themes/lv_theme.o
 .debug_str     0x00001233        0x0 build/default/production/lvgl/src/lv_themes/lv_theme_alien.o
 .debug_str     0x00001233        0x0 build/default/production/lvgl/src/lv_themes/lv_theme_default.o
 .debug_str     0x00001233        0x0 build/default/production/lvgl/src/lv_themes/lv_theme_material.o
 .debug_str     0x00001233        0x0 build/default/production/lvgl/src/lv_themes/lv_theme_mono.o
 .debug_str     0x00001233        0x0 build/default/production/lvgl/src/lv_themes/lv_theme_nemo.o
 .debug_str     0x00001233        0x0 build/default/production/lvgl/src/lv_themes/lv_theme_night.o
 .debug_str     0x00001233        0x0 build/default/production/lvgl/src/lv_themes/lv_theme_templ.o
 .debug_str     0x00001233        0x0 build/default/production/lvgl/src/lv_themes/lv_theme_zen.o
 .debug_str     0x00001233        0xf build/default/production/main.o
 .debug_str     0x00001242        0x9 build/default/production/RA8875.o
 .debug_str     0x0000124b        0x0 build/default/production/delay.o
 .debug_str     0x0000124b        0x0 build/default/production/uart.o
 .debug_str     0x0000124b        0x0 d:/programas/microchip/xc32/v2.10/bin/bin/../../lib/gcc/pic32mx/4.8.3\libgcc.a(_udivdi3.o)
 .debug_str     0x0000124b        0x0 d:/programas/microchip/xc32/v2.10/bin/bin/../../lib/gcc/pic32mx/4.8.3\libgcc.a(_umoddi3.o)
 .debug_str     0x0000124b        0x0 d:/programas/microchip/xc32/v2.10/bin/bin/../../lib/gcc/pic32mx/4.8.3\libgcc.a(floatunsisf.o)
 .debug_str     0x0000124b        0x0 d:/programas/microchip/xc32/v2.10/bin/bin/../../lib/gcc/pic32mx/4.8.3/../../../../pic32mx/lib\libpic32.a(default-bootstrap-exception-handler.o)
 .debug_str     0x0000124b        0x0 d:/programas/microchip/xc32/v2.10/bin/bin/../../lib/gcc/pic32mx/4.8.3/../../../../pic32mx/lib\libpic32.a(default-on-reset.o)
 .debug_str     0x0000124b        0x0 d:/programas/microchip/xc32/v2.10/bin/bin/../../lib/gcc/pic32mx/4.8.3/../../../../pic32mx/lib\libpic32.a(default-on-bootstrap.o)
 .debug_str     0x0000124b        0x0 d:/programas/microchip/xc32/v2.10/bin/bin/../../lib/gcc/pic32mx/4.8.3/../../../../pic32mx/lib\libpic32.a(default-general-exception-handler.o)
 .debug_str     0x0000124b        0x0 d:/programas/microchip/xc32/v2.10/bin/bin/../../lib/gcc/pic32mx/4.8.3/../../../../pic32mx/lib\libpic32.a(defaultinterrupt.o)

.debug_loc      0x00000000    0x36f2c
 *(.debug_loc)
 .debug_loc     0x00000000      0x2fb build/default/production/lvgl/src/lv_core/lv_debug.o
 .debug_loc     0x000002fb      0x1f1 build/default/production/lvgl/src/lv_core/lv_disp.o
 .debug_loc     0x000004ec      0x962 build/default/production/lvgl/src/lv_core/lv_group.o
 .debug_loc     0x00000e4e      0x888 build/default/production/lvgl/src/lv_core/lv_indev.o
 .debug_loc     0x000016d6     0x2e87 build/default/production/lvgl/src/lv_core/lv_obj.o
 .debug_loc     0x0000455d      0x7c2 build/default/production/lvgl/src/lv_core/lv_refr.o
 .debug_loc     0x00004d1f      0x498 build/default/production/lvgl/src/lv_core/lv_style.o
 .debug_loc     0x000051b7       0x45 build/default/production/lvgl/src/lv_draw/lv_draw.o
 .debug_loc     0x000051fc      0x7fd build/default/production/lvgl/src/lv_draw/lv_draw_arc.o
 .debug_loc     0x000059f9     0x193b build/default/production/lvgl/src/lv_draw/lv_draw_basic.o
 .debug_loc     0x00007334     0x1509 build/default/production/lvgl/src/lv_draw/lv_draw_img.o
 .debug_loc     0x0000883d      0x859 build/default/production/lvgl/src/lv_draw/lv_draw_label.o
 .debug_loc     0x00009096      0x70b build/default/production/lvgl/src/lv_draw/lv_draw_line.o
 .debug_loc     0x000097a1     0x2141 build/default/production/lvgl/src/lv_draw/lv_draw_rect.o
 .debug_loc     0x0000b8e2      0xe6d build/default/production/lvgl/src/lv_draw/lv_draw_triangle.o
 .debug_loc     0x0000c74f      0x260 build/default/production/lvgl/src/lv_draw/lv_img_cache.o
 .debug_loc     0x0000c9af     0x1225 build/default/production/lvgl/src/lv_draw/lv_img_decoder.o
 .debug_loc     0x0000dbd4      0x152 build/default/production/lvgl/src/lv_font/lv_font.o
 .debug_loc     0x0000dd26      0xd3c build/default/production/lvgl/src/lv_font/lv_font_fmt_txt.o
 .debug_loc     0x0000ea62      0x3a2 build/default/production/lvgl/src/lv_hal/lv_hal_disp.o
 .debug_loc     0x0000ee04      0x180 build/default/production/lvgl/src/lv_hal/lv_hal_indev.o
 .debug_loc     0x0000ef84       0x6d build/default/production/lvgl/src/lv_hal/lv_hal_tick.o
 .debug_loc     0x0000eff1      0x81c build/default/production/lvgl/src/lv_misc/lv_anim.o
 .debug_loc     0x0000f80d      0x1d7 build/default/production/lvgl/src/lv_misc/lv_area.o
 .debug_loc     0x0000f9e4       0xde build/default/production/lvgl/src/lv_misc/lv_async.o
 .debug_loc     0x0000fac2       0x42 build/default/production/lvgl/src/lv_misc/lv_circ.o
 .debug_loc     0x0000fb04      0x62b build/default/production/lvgl/src/lv_misc/lv_color.o
 .debug_loc     0x0001012f      0xba8 build/default/production/lvgl/src/lv_misc/lv_fs.o
 .debug_loc     0x00010cd7      0x7e2 build/default/production/lvgl/src/lv_misc/lv_ll.o
 .debug_loc     0x000114b9      0x556 build/default/production/lvgl/src/lv_misc/lv_math.o
 .debug_loc     0x00011a0f      0x3c1 build/default/production/lvgl/src/lv_misc/lv_mem.o
 .debug_loc     0x00011dd0     0x1d02 build/default/production/lvgl/src/lv_misc/lv_printf.o
 .debug_loc     0x00013ad2      0x450 build/default/production/lvgl/src/lv_misc/lv_task.o
 .debug_loc     0x00013f22     0x1096 build/default/production/lvgl/src/lv_misc/lv_txt.o
 .debug_loc     0x00014fb8      0x2dc build/default/production/lvgl/src/lv_misc/lv_utils.o
 .debug_loc     0x00015294      0x58b build/default/production/lvgl/src/lv_objx/lv_arc.o
 .debug_loc     0x0001581f      0xa60 build/default/production/lvgl/src/lv_objx/lv_bar.o
 .debug_loc     0x0001627f      0x7c4 build/default/production/lvgl/src/lv_objx/lv_btn.o
 .debug_loc     0x00016a43     0x1b52 build/default/production/lvgl/src/lv_objx/lv_btnm.o
 .debug_loc     0x00018595     0x169a build/default/production/lvgl/src/lv_objx/lv_calendar.o
 .debug_loc     0x00019c2f     0x1e4e build/default/production/lvgl/src/lv_objx/lv_canvas.o
 .debug_loc     0x0001ba7d      0x8be build/default/production/lvgl/src/lv_objx/lv_cb.o
 .debug_loc     0x0001c33b     0x2795 build/default/production/lvgl/src/lv_objx/lv_chart.o
 .debug_loc     0x0001ead0      0xf08 build/default/production/lvgl/src/lv_objx/lv_cont.o
 .debug_loc     0x0001f9d8     0x17b8 build/default/production/lvgl/src/lv_objx/lv_cpicker.o
 .debug_loc     0x00021190     0x1630 build/default/production/lvgl/src/lv_objx/lv_ddlist.o
 .debug_loc     0x000227c0      0xb25 build/default/production/lvgl/src/lv_objx/lv_gauge.o
 .debug_loc     0x000232e5      0x5f9 build/default/production/lvgl/src/lv_objx/lv_img.o
 .debug_loc     0x000238de      0x51e build/default/production/lvgl/src/lv_objx/lv_imgbtn.o
 .debug_loc     0x00023dfc      0x676 build/default/production/lvgl/src/lv_objx/lv_kb.o
 .debug_loc     0x00024472     0x1c2c build/default/production/lvgl/src/lv_objx/lv_label.o
 .debug_loc     0x0002609e      0x548 build/default/production/lvgl/src/lv_objx/lv_led.o
 .debug_loc     0x000265e6      0x54d build/default/production/lvgl/src/lv_objx/lv_line.o
 .debug_loc     0x00026b33     0x177e build/default/production/lvgl/src/lv_objx/lv_list.o
 .debug_loc     0x000282b1      0x929 build/default/production/lvgl/src/lv_objx/lv_lmeter.o
 .debug_loc     0x00028bda      0xac0 build/default/production/lvgl/src/lv_objx/lv_mbox.o
 .debug_loc     0x0002969a     0x1a82 build/default/production/lvgl/src/lv_objx/lv_page.o
 .debug_loc     0x0002b11c      0x6bd build/default/production/lvgl/src/lv_objx/lv_preload.o
 .debug_loc     0x0002b7d9     0x12f0 build/default/production/lvgl/src/lv_objx/lv_roller.o
 .debug_loc     0x0002cac9     0x11bb build/default/production/lvgl/src/lv_objx/lv_slider.o
 .debug_loc     0x0002dc84      0x9ce build/default/production/lvgl/src/lv_objx/lv_spinbox.o
 .debug_loc     0x0002e652      0x868 build/default/production/lvgl/src/lv_objx/lv_sw.o
 .debug_loc     0x0002eeba     0x237e build/default/production/lvgl/src/lv_objx/lv_ta.o
 .debug_loc     0x00031238     0x15b7 build/default/production/lvgl/src/lv_objx/lv_table.o
 .debug_loc     0x000327ef     0x1683 build/default/production/lvgl/src/lv_objx/lv_tabview.o
 .debug_loc     0x00033e72      0x987 build/default/production/lvgl/src/lv_objx/lv_tileview.o
 .debug_loc     0x000347f9      0xd51 build/default/production/lvgl/src/lv_objx/lv_win.o
 .debug_loc     0x0003554a       0x30 build/default/production/lvgl/src/lv_themes/lv_theme.o
 .debug_loc     0x0003557a      0x132 build/default/production/main.o
 .debug_loc     0x000356ac      0x258 build/default/production/RA8875.o
 .debug_loc     0x00035904       0x3c build/default/production/delay.o
 .debug_loc     0x00035940       0x79 build/default/production/uart.o
 .debug_loc     0x000359b9      0xa6a d:/programas/microchip/xc32/v2.10/bin/bin/../../lib/gcc/pic32mx/4.8.3\libgcc.a(_udivdi3.o)
 .debug_loc     0x00036423      0xa3d d:/programas/microchip/xc32/v2.10/bin/bin/../../lib/gcc/pic32mx/4.8.3\libgcc.a(_umoddi3.o)
 .debug_loc     0x00036e60       0x74 d:/programas/microchip/xc32/v2.10/bin/bin/../../lib/gcc/pic32mx/4.8.3\libgcc.a(floatunsisf.o)
 .debug_loc     0x00036ed4       0x2c d:/programas/microchip/xc32/v2.10/bin/bin/../../lib/gcc/pic32mx/4.8.3/../../../../pic32mx/lib\libpic32.a(default-bootstrap-exception-handler.o)
 .debug_loc     0x00036f00       0x2c d:/programas/microchip/xc32/v2.10/bin/bin/../../lib/gcc/pic32mx/4.8.3/../../../../pic32mx/lib\libpic32.a(default-general-exception-handler.o)

.debug_macinfo
 *(.debug_macinfo)

.debug_weaknames
 *(.debug_weaknames)

.debug_funcnames
 *(.debug_funcnames)

.debug_typenames
 *(.debug_typenames)

.debug_varnames
 *(.debug_varnames)

.debug_pubtypes
 *(.debug_pubtypes)

.debug_ranges   0x00000000     0x1cb0
 *(.debug_ranges)
 .debug_ranges  0x00000000       0x50 build/default/production/lvgl/src/lv_core/lv_debug.o
 .debug_ranges  0x00000050      0x128 build/default/production/lvgl/src/lv_core/lv_indev.o
 .debug_ranges  0x00000178       0x18 build/default/production/lvgl/src/lv_core/lv_obj.o
 .debug_ranges  0x00000190       0xb8 build/default/production/lvgl/src/lv_core/lv_refr.o
 .debug_ranges  0x00000248       0x30 build/default/production/lvgl/src/lv_draw/lv_draw_arc.o
 .debug_ranges  0x00000278       0xc0 build/default/production/lvgl/src/lv_draw/lv_draw_basic.o
 .debug_ranges  0x00000338       0x30 build/default/production/lvgl/src/lv_draw/lv_draw_img.o
 .debug_ranges  0x00000368       0x60 build/default/production/lvgl/src/lv_draw/lv_draw_label.o
 .debug_ranges  0x000003c8       0xa0 build/default/production/lvgl/src/lv_draw/lv_draw_line.o
 .debug_ranges  0x00000468      0x2e8 build/default/production/lvgl/src/lv_draw/lv_draw_rect.o
 .debug_ranges  0x00000750       0x18 build/default/production/lvgl/src/lv_draw/lv_img_cache.o
 .debug_ranges  0x00000768       0xf0 build/default/production/lvgl/src/lv_font/lv_font_fmt_txt.o
 .debug_ranges  0x00000858       0x58 build/default/production/lvgl/src/lv_misc/lv_anim.o
 .debug_ranges  0x000008b0       0x20 build/default/production/lvgl/src/lv_misc/lv_color.o
 .debug_ranges  0x000008d0       0x10 build/default/production/lvgl/src/lv_misc/lv_fs.o
 .debug_ranges  0x000008e0       0x18 build/default/production/lvgl/src/lv_misc/lv_mem.o
 .debug_ranges  0x000008f8      0x100 build/default/production/lvgl/src/lv_misc/lv_printf.o
 .debug_ranges  0x000009f8      0x120 build/default/production/lvgl/src/lv_misc/lv_txt.o
 .debug_ranges  0x00000b18       0x18 build/default/production/lvgl/src/lv_misc/lv_utils.o
 .debug_ranges  0x00000b30       0x30 build/default/production/lvgl/src/lv_objx/lv_bar.o
 .debug_ranges  0x00000b60       0x18 build/default/production/lvgl/src/lv_objx/lv_btn.o
 .debug_ranges  0x00000b78       0x98 build/default/production/lvgl/src/lv_objx/lv_btnm.o
 .debug_ranges  0x00000c10      0x2b0 build/default/production/lvgl/src/lv_objx/lv_calendar.o
 .debug_ranges  0x00000ec0       0xb8 build/default/production/lvgl/src/lv_objx/lv_canvas.o
 .debug_ranges  0x00000f78      0x1d0 build/default/production/lvgl/src/lv_objx/lv_chart.o
 .debug_ranges  0x00001148      0x108 build/default/production/lvgl/src/lv_objx/lv_cont.o
 .debug_ranges  0x00001250      0x208 build/default/production/lvgl/src/lv_objx/lv_cpicker.o
 .debug_ranges  0x00001458       0xa0 build/default/production/lvgl/src/lv_objx/lv_ddlist.o
 .debug_ranges  0x000014f8       0x78 build/default/production/lvgl/src/lv_objx/lv_gauge.o
 .debug_ranges  0x00001570       0x18 build/default/production/lvgl/src/lv_objx/lv_img.o
 .debug_ranges  0x00001588       0x48 build/default/production/lvgl/src/lv_objx/lv_label.o
 .debug_ranges  0x000015d0       0x18 build/default/production/lvgl/src/lv_objx/lv_led.o
 .debug_ranges  0x000015e8      0x118 build/default/production/lvgl/src/lv_objx/lv_list.o
 .debug_ranges  0x00001700       0x18 build/default/production/lvgl/src/lv_objx/lv_lmeter.o
 .debug_ranges  0x00001718       0x80 build/default/production/lvgl/src/lv_objx/lv_page.o
 .debug_ranges  0x00001798       0x18 build/default/production/lvgl/src/lv_objx/lv_preload.o
 .debug_ranges  0x000017b0       0xa0 build/default/production/lvgl/src/lv_objx/lv_roller.o
 .debug_ranges  0x00001850       0x30 build/default/production/lvgl/src/lv_objx/lv_slider.o
 .debug_ranges  0x00001880       0x68 build/default/production/lvgl/src/lv_objx/lv_spinbox.o
 .debug_ranges  0x000018e8       0x60 build/default/production/lvgl/src/lv_objx/lv_ta.o
 .debug_ranges  0x00001948       0xf8 build/default/production/lvgl/src/lv_objx/lv_table.o
 .debug_ranges  0x00001a40       0x30 build/default/production/lvgl/src/lv_objx/lv_tabview.o
 .debug_ranges  0x00001a70       0x80 build/default/production/lvgl/src/lv_objx/lv_tileview.o
 .debug_ranges  0x00001af0       0x98 d:/programas/microchip/xc32/v2.10/bin/bin/../../lib/gcc/pic32mx/4.8.3\libgcc.a(_udivdi3.o)
 .debug_ranges  0x00001b88       0xd8 d:/programas/microchip/xc32/v2.10/bin/bin/../../lib/gcc/pic32mx/4.8.3\libgcc.a(_umoddi3.o)
 .debug_ranges  0x00001c60       0x10 d:/programas/microchip/xc32/v2.10/bin/bin/../../lib/gcc/pic32mx/4.8.3/../../../../pic32mx/lib\libpic32.a(default-bootstrap-exception-handler.o)
 .debug_ranges  0x00001c70       0x10 d:/programas/microchip/xc32/v2.10/bin/bin/../../lib/gcc/pic32mx/4.8.3/../../../../pic32mx/lib\libpic32.a(default-on-reset.o)
 .debug_ranges  0x00001c80       0x10 d:/programas/microchip/xc32/v2.10/bin/bin/../../lib/gcc/pic32mx/4.8.3/../../../../pic32mx/lib\libpic32.a(default-on-bootstrap.o)
 .debug_ranges  0x00001c90       0x10 d:/programas/microchip/xc32/v2.10/bin/bin/../../lib/gcc/pic32mx/4.8.3/../../../../pic32mx/lib\libpic32.a(default-general-exception-handler.o)
 .debug_ranges  0x00001ca0       0x10 d:/programas/microchip/xc32/v2.10/bin/bin/../../lib/gcc/pic32mx/4.8.3/../../../../pic32mx/lib\libpic32.a(defaultinterrupt.o)

.gnu.attributes
                0x00000000       0x10
 *(.gnu.attributes)
 .gnu.attributes
                0x00000000       0x10 build/default/production/lvgl/porting/lv_port_disp_template.o
 .gnu.attributes
                0x00000010       0x10 build/default/production/lvgl/porting/lv_port_fs_template.o
 .gnu.attributes
                0x00000020       0x10 build/default/production/lvgl/porting/lv_port_indev_template.o
 .gnu.attributes
                0x00000030       0x10 build/default/production/lvgl/src/lv_core/lv_debug.o
 .gnu.attributes
                0x00000040       0x10 build/default/production/lvgl/src/lv_core/lv_disp.o
 .gnu.attributes
                0x00000050       0x10 build/default/production/lvgl/src/lv_core/lv_group.o
 .gnu.attributes
                0x00000060       0x10 build/default/production/lvgl/src/lv_core/lv_indev.o
 .gnu.attributes
                0x00000070       0x10 build/default/production/lvgl/src/lv_core/lv_obj.o
 .gnu.attributes
                0x00000080       0x10 build/default/production/lvgl/src/lv_core/lv_refr.o
 .gnu.attributes
                0x00000090       0x10 build/default/production/lvgl/src/lv_core/lv_style.o
 .gnu.attributes
                0x000000a0       0x10 build/default/production/lvgl/src/lv_draw/lv_draw.o
 .gnu.attributes
                0x000000b0       0x10 build/default/production/lvgl/src/lv_draw/lv_draw_arc.o
 .gnu.attributes
                0x000000c0       0x10 build/default/production/lvgl/src/lv_draw/lv_draw_basic.o
 .gnu.attributes
                0x000000d0       0x10 build/default/production/lvgl/src/lv_draw/lv_draw_img.o
 .gnu.attributes
                0x000000e0       0x10 build/default/production/lvgl/src/lv_draw/lv_draw_label.o
 .gnu.attributes
                0x000000f0       0x10 build/default/production/lvgl/src/lv_draw/lv_draw_line.o
 .gnu.attributes
                0x00000100       0x10 build/default/production/lvgl/src/lv_draw/lv_draw_rect.o
 .gnu.attributes
                0x00000110       0x10 build/default/production/lvgl/src/lv_draw/lv_draw_triangle.o
 .gnu.attributes
                0x00000120       0x10 build/default/production/lvgl/src/lv_draw/lv_img_cache.o
 .gnu.attributes
                0x00000130       0x10 build/default/production/lvgl/src/lv_draw/lv_img_decoder.o
 .gnu.attributes
                0x00000140       0x10 build/default/production/lvgl/src/lv_font/lv_font.o
 .gnu.attributes
                0x00000150       0x10 build/default/production/lvgl/src/lv_font/lv_font_fmt_txt.o
 .gnu.attributes
                0x00000160       0x10 build/default/production/lvgl/src/lv_font/lv_font_roboto_12.o
 .gnu.attributes
                0x00000170       0x10 build/default/production/lvgl/src/lv_font/lv_font_roboto_12_subpx.o
 .gnu.attributes
                0x00000180       0x10 build/default/production/lvgl/src/lv_font/lv_font_roboto_16.o
 .gnu.attributes
                0x00000190       0x10 build/default/production/lvgl/src/lv_font/lv_font_roboto_22.o
 .gnu.attributes
                0x000001a0       0x10 build/default/production/lvgl/src/lv_font/lv_font_roboto_28.o
 .gnu.attributes
                0x000001b0       0x10 build/default/production/lvgl/src/lv_font/lv_font_roboto_28_compressed.o
 .gnu.attributes
                0x000001c0       0x10 build/default/production/lvgl/src/lv_font/lv_font_unscii_8.o
 .gnu.attributes
                0x000001d0       0x10 build/default/production/lvgl/src/lv_hal/lv_hal_disp.o
 .gnu.attributes
                0x000001e0       0x10 build/default/production/lvgl/src/lv_hal/lv_hal_indev.o
 .gnu.attributes
                0x000001f0       0x10 build/default/production/lvgl/src/lv_hal/lv_hal_tick.o
 .gnu.attributes
                0x00000200       0x10 build/default/production/lvgl/src/lv_misc/lv_anim.o
 .gnu.attributes
                0x00000210       0x10 build/default/production/lvgl/src/lv_misc/lv_area.o
 .gnu.attributes
                0x00000220       0x10 build/default/production/lvgl/src/lv_misc/lv_async.o
 .gnu.attributes
                0x00000230       0x10 build/default/production/lvgl/src/lv_misc/lv_bidi.o
 .gnu.attributes
                0x00000240       0x10 build/default/production/lvgl/src/lv_misc/lv_circ.o
 .gnu.attributes
                0x00000250       0x10 build/default/production/lvgl/src/lv_misc/lv_color.o
 .gnu.attributes
                0x00000260       0x10 build/default/production/lvgl/src/lv_misc/lv_fs.o
 .gnu.attributes
                0x00000270       0x10 build/default/production/lvgl/src/lv_misc/lv_gc.o
 .gnu.attributes
                0x00000280       0x10 build/default/production/lvgl/src/lv_misc/lv_ll.o
 .gnu.attributes
                0x00000290       0x10 build/default/production/lvgl/src/lv_misc/lv_log.o
 .gnu.attributes
                0x000002a0       0x10 build/default/production/lvgl/src/lv_misc/lv_math.o
 .gnu.attributes
                0x000002b0       0x10 build/default/production/lvgl/src/lv_misc/lv_mem.o
 .gnu.attributes
                0x000002c0       0x10 build/default/production/lvgl/src/lv_misc/lv_printf.o
 .gnu.attributes
                0x000002d0       0x10 build/default/production/lvgl/src/lv_misc/lv_task.o
 .gnu.attributes
                0x000002e0       0x10 build/default/production/lvgl/src/lv_misc/lv_templ.o
 .gnu.attributes
                0x000002f0       0x10 build/default/production/lvgl/src/lv_misc/lv_txt.o
 .gnu.attributes
                0x00000300       0x10 build/default/production/lvgl/src/lv_misc/lv_utils.o
 .gnu.attributes
                0x00000310       0x10 build/default/production/lvgl/src/lv_objx/lv_arc.o
 .gnu.attributes
                0x00000320       0x10 build/default/production/lvgl/src/lv_objx/lv_bar.o
 .gnu.attributes
                0x00000330       0x10 build/default/production/lvgl/src/lv_objx/lv_btn.o
 .gnu.attributes
                0x00000340       0x10 build/default/production/lvgl/src/lv_objx/lv_btnm.o
 .gnu.attributes
                0x00000350       0x10 build/default/production/lvgl/src/lv_objx/lv_calendar.o
 .gnu.attributes
                0x00000360       0x10 build/default/production/lvgl/src/lv_objx/lv_canvas.o
 .gnu.attributes
                0x00000370       0x10 build/default/production/lvgl/src/lv_objx/lv_cb.o
 .gnu.attributes
                0x00000380       0x10 build/default/production/lvgl/src/lv_objx/lv_chart.o
 .gnu.attributes
                0x00000390       0x10 build/default/production/lvgl/src/lv_objx/lv_cont.o
 .gnu.attributes
                0x000003a0       0x10 build/default/production/lvgl/src/lv_objx/lv_cpicker.o
 .gnu.attributes
                0x000003b0       0x10 build/default/production/lvgl/src/lv_objx/lv_ddlist.o
 .gnu.attributes
                0x000003c0       0x10 build/default/production/lvgl/src/lv_objx/lv_gauge.o
 .gnu.attributes
                0x000003d0       0x10 build/default/production/lvgl/src/lv_objx/lv_img.o
 .gnu.attributes
                0x000003e0       0x10 build/default/production/lvgl/src/lv_objx/lv_imgbtn.o
 .gnu.attributes
                0x000003f0       0x10 build/default/production/lvgl/src/lv_objx/lv_kb.o
 .gnu.attributes
                0x00000400       0x10 build/default/production/lvgl/src/lv_objx/lv_label.o
 .gnu.attributes
                0x00000410       0x10 build/default/production/lvgl/src/lv_objx/lv_led.o
 .gnu.attributes
                0x00000420       0x10 build/default/production/lvgl/src/lv_objx/lv_line.o
 .gnu.attributes
                0x00000430       0x10 build/default/production/lvgl/src/lv_objx/lv_list.o
 .gnu.attributes
                0x00000440       0x10 build/default/production/lvgl/src/lv_objx/lv_lmeter.o
 .gnu.attributes
                0x00000450       0x10 build/default/production/lvgl/src/lv_objx/lv_mbox.o
 .gnu.attributes
                0x00000460       0x10 build/default/production/lvgl/src/lv_objx/lv_objx_templ.o
 .gnu.attributes
                0x00000470       0x10 build/default/production/lvgl/src/lv_objx/lv_page.o
 .gnu.attributes
                0x00000480       0x10 build/default/production/lvgl/src/lv_objx/lv_preload.o
 .gnu.attributes
                0x00000490       0x10 build/default/production/lvgl/src/lv_objx/lv_roller.o
 .gnu.attributes
                0x000004a0       0x10 build/default/production/lvgl/src/lv_objx/lv_slider.o
 .gnu.attributes
                0x000004b0       0x10 build/default/production/lvgl/src/lv_objx/lv_spinbox.o
 .gnu.attributes
                0x000004c0       0x10 build/default/production/lvgl/src/lv_objx/lv_sw.o
 .gnu.attributes
                0x000004d0       0x10 build/default/production/lvgl/src/lv_objx/lv_ta.o
 .gnu.attributes
                0x000004e0       0x10 build/default/production/lvgl/src/lv_objx/lv_table.o
 .gnu.attributes
                0x000004f0       0x10 build/default/production/lvgl/src/lv_objx/lv_tabview.o
 .gnu.attributes
                0x00000500       0x10 build/default/production/lvgl/src/lv_objx/lv_tileview.o
 .gnu.attributes
                0x00000510       0x10 build/default/production/lvgl/src/lv_objx/lv_win.o
 .gnu.attributes
                0x00000520       0x10 build/default/production/lvgl/src/lv_themes/lv_theme.o
 .gnu.attributes
                0x00000530       0x10 build/default/production/lvgl/src/lv_themes/lv_theme_alien.o
 .gnu.attributes
                0x00000540       0x10 build/default/production/lvgl/src/lv_themes/lv_theme_default.o
 .gnu.attributes
                0x00000550       0x10 build/default/production/lvgl/src/lv_themes/lv_theme_material.o
 .gnu.attributes
                0x00000560       0x10 build/default/production/lvgl/src/lv_themes/lv_theme_mono.o
 .gnu.attributes
                0x00000570       0x10 build/default/production/lvgl/src/lv_themes/lv_theme_nemo.o
 .gnu.attributes
                0x00000580       0x10 build/default/production/lvgl/src/lv_themes/lv_theme_night.o
 .gnu.attributes
                0x00000590       0x10 build/default/production/lvgl/src/lv_themes/lv_theme_templ.o
 .gnu.attributes
                0x000005a0       0x10 build/default/production/lvgl/src/lv_themes/lv_theme_zen.o
 .gnu.attributes
                0x000005b0       0x10 build/default/production/main.o
 .gnu.attributes
                0x000005c0       0x10 build/default/production/RA8875.o
 .gnu.attributes
                0x000005d0       0x10 build/default/production/delay.o
 .gnu.attributes
                0x000005e0       0x10 build/default/production/uart.o
 .gnu.attributes
                0x000005f0       0x10 d:/programas/microchip/xc32/v2.10/bin/bin/../../lib/gcc/pic32mx/4.8.3\libgcc.a(_udivdi3.o)
 .gnu.attributes
                0x00000600       0x10 d:/programas/microchip/xc32/v2.10/bin/bin/../../lib/gcc/pic32mx/4.8.3\libgcc.a(_umoddi3.o)
 .gnu.attributes
                0x00000610       0x10 d:/programas/microchip/xc32/v2.10/bin/bin/../../lib/gcc/pic32mx/4.8.3\libgcc.a(floatunsisf.o)
 .gnu.attributes
                0x00000620       0x10 d:/programas/microchip/xc32/v2.10/bin/bin/../../lib/gcc/pic32mx/4.8.3/../../../../pic32mx/lib\libpic32.a(default-bootstrap-exception-handler.o)
 .gnu.attributes
                0x00000630       0x10 d:/programas/microchip/xc32/v2.10/bin/bin/../../lib/gcc/pic32mx/4.8.3/../../../../pic32mx/lib\libpic32.a(default-on-reset.o)
 .gnu.attributes
                0x00000640       0x10 d:/programas/microchip/xc32/v2.10/bin/bin/../../lib/gcc/pic32mx/4.8.3/../../../../pic32mx/lib\libpic32.a(default-on-bootstrap.o)
 .gnu.attributes
                0x00000650       0x10 d:/programas/microchip/xc32/v2.10/bin/bin/../../lib/gcc/pic32mx/4.8.3/../../../../pic32mx/lib\libpic32.a(default-general-exception-handler.o)
 .gnu.attributes
                0x00000660       0x10 d:/programas/microchip/xc32/v2.10/bin/bin/../../lib/gcc/pic32mx/4.8.3/../../../../pic32mx/lib\libpic32.a(defaultinterrupt.o)
 .gnu.attributes
                0x00000670       0x10 d:/programas/microchip/xc32/v2.10/bin/bin/../../lib/gcc/pic32mx/4.8.3/../../../../pic32mx/lib\liblega-c.a(strncpy.o)
LOAD d:/programas/microchip/xc32/v2.10/bin/bin/../../lib/gcc/pic32mx/4.8.3\libgcc.a
START GROUP
LOAD d:/programas/microchip/xc32/v2.10/bin/bin/../../lib/gcc/pic32mx/4.8.3/../../../../pic32mx/lib\libpic32.a
LOAD d:/programas/microchip/xc32/v2.10/bin/bin/../../lib/gcc/pic32mx/4.8.3/../../../../pic32mx/lib\libdebug.a
LOAD d:/programas/microchip/xc32/v2.10/bin/bin/../../lib/gcc/pic32mx/4.8.3/../../../../pic32mx/lib\libpic32.a
LOAD d:/programas/microchip/xc32/v2.10/bin/bin/../../lib/gcc/pic32mx/4.8.3/../../../../pic32mx/lib\liblega-c.a
LOAD d:/programas/microchip/xc32/v2.10/bin/bin/../../lib/gcc/pic32mx/4.8.3/../../../../pic32mx/lib\libm.a
LOAD d:/programas/microchip/xc32/v2.10/bin/bin/../../lib/gcc/pic32mx/4.8.3/../../../../pic32mx/lib\libe.a
LOAD d:/programas/microchip/xc32/v2.10/bin/bin/../../lib/gcc/pic32mx/4.8.3/../../../../pic32mx/lib\libdsp.a
LOAD d:/programas/microchip/xc32/v2.10/bin/bin/../../lib/gcc/pic32mx/4.8.3\libgcc.a
LOAD d:/programas/microchip/xc32/v2.10/bin/bin/../../lib/gcc/pic32mx/4.8.3/../../../../pic32mx/lib\libpic32.a
END GROUP
LOAD d:/programas/microchip/xc32/v2.10/bin/bin/../../lib/gcc/pic32mx/4.8.3\libgcc.a
OUTPUT(dist/default/production/teste_lvgl.X.production.elf elf32-tradlittlemips)
LOAD stack
LOAD data_init

.reginfo        0x00000000       0x18
 .reginfo       0x00000000       0x18 d:/programas/microchip/xc32/v2.10/bin/bin/../../lib/gcc/pic32mx/4.8.3/../../../../pic32mx/lib/./proc/32MX795F512H/crt0_mips32r2.o

.stack          0xa0008eb8      0x400
 .stack         0xa0008eb8      0x400 stack

.bss            0xa0000544     0x8640
 .bss           0xa0000544     0x8000 build/default/production/lvgl/src/lv_misc/lv_mem.o
 .bss           0xa0008544      0x640 build/default/production/lvgl/src/lv_draw/lv_draw_basic.o

.data           0xa0008b84      0x290
 .data          0xa0008b84      0x264 build/default/production/lvgl/src/lv_objx/lv_kb.o
 .data          0xa0008de8       0x2c build/default/production/lvgl/src/lv_font/lv_font_roboto_12_subpx.o
                0xa0008de8                lv_font_roboto_12_subpx

.data           0xa0008e14       0x58
 .data          0xa0008e14       0x2c build/default/production/lvgl/src/lv_font/lv_font_roboto_16.o
                0xa0008e14                lv_font_roboto_16
 .data          0xa0008e40       0x2c build/default/production/lvgl/src/lv_font/lv_font_roboto_28_compressed.o
                0xa0008e40                lv_font_roboto_28_compressed

.data           0xa0008e6c       0x1c
 .data          0xa0008e6c       0x1c build/default/production/lvgl/src/lv_objx/lv_btnm.o

.bss%z1         0x00000000        0x0
 .bss           0x00000000        0x0 d:/programas/microchip/xc32/v2.10/bin/bin/../../lib/gcc/pic32mx/4.8.3/../../../../pic32mx/lib\libm.a(sitofp.o)

.data%z2        0x00000000        0x0
 .data          0x00000000        0x0 d:/programas/microchip/xc32/v2.10/bin/bin/../../lib/gcc/pic32mx/4.8.3/../../../../pic32mx/lib\libm.a(sitofp.o)

.bss%z3         0x00000000        0x0
 .bss           0x00000000        0x0 d:/programas/microchip/xc32/v2.10/bin/bin/../../lib/gcc/pic32mx/4.8.3/../../../../pic32mx/lib\libm.a(fptoul.o)

.data%z4        0x00000000        0x0
 .data          0x00000000        0x0 d:/programas/microchip/xc32/v2.10/bin/bin/../../lib/gcc/pic32mx/4.8.3/../../../../pic32mx/lib\libm.a(fptoul.o)

.bss%z5         0x00000000        0x0
 .bss           0x00000000        0x0 d:/programas/microchip/xc32/v2.10/bin/bin/../../lib/gcc/pic32mx/4.8.3/../../../../pic32mx/lib\libm.a(fptoli.o)

.data%z6        0x00000000        0x0
 .data          0x00000000        0x0 d:/programas/microchip/xc32/v2.10/bin/bin/../../lib/gcc/pic32mx/4.8.3/../../../../pic32mx/lib\libm.a(fptoli.o)

.bss%z7         0x00000000        0x0
 .bss           0x00000000        0x0 d:/programas/microchip/xc32/v2.10/bin/bin/../../lib/gcc/pic32mx/4.8.3/../../../../pic32mx/lib\libm.a(fpcmp.o)

.data%z8        0x00000000        0x0
 .data          0x00000000        0x0 d:/programas/microchip/xc32/v2.10/bin/bin/../../lib/gcc/pic32mx/4.8.3/../../../../pic32mx/lib\libm.a(fpcmp.o)

.bss%z9         0x00000000        0x0
 .bss           0x00000000        0x0 d:/programas/microchip/xc32/v2.10/bin/bin/../../lib/gcc/pic32mx/4.8.3/../../../../pic32mx/lib\libm.a(fp32subadd.o)

.data%z10       0x00000000        0x0
 .data          0x00000000        0x0 d:/programas/microchip/xc32/v2.10/bin/bin/../../lib/gcc/pic32mx/4.8.3/../../../../pic32mx/lib\libm.a(fp32subadd.o)

.bss%z11        0x00000000        0x0
 .bss           0x00000000        0x0 d:/programas/microchip/xc32/v2.10/bin/bin/../../lib/gcc/pic32mx/4.8.3/../../../../pic32mx/lib\libm.a(fp32mul.o)

.data%z12       0x00000000        0x0
 .data          0x00000000        0x0 d:/programas/microchip/xc32/v2.10/bin/bin/../../lib/gcc/pic32mx/4.8.3/../../../../pic32mx/lib\libm.a(fp32mul.o)

.bss%z13        0x00000000        0x0
 .bss           0x00000000        0x0 d:/programas/microchip/xc32/v2.10/bin/bin/../../lib/gcc/pic32mx/4.8.3/../../../../pic32mx/lib\libm.a(fp32div.o)

.data%z14       0x00000000        0x0
 .data          0x00000000        0x0 d:/programas/microchip/xc32/v2.10/bin/bin/../../lib/gcc/pic32mx/4.8.3/../../../../pic32mx/lib\libm.a(fp32div.o)

.bss%z15        0x00000000        0x0
 .bss           0x00000000        0x0 d:/programas/microchip/xc32/v2.10/bin/bin/../../lib/gcc/pic32mx/4.8.3/../../../../pic32mx/lib\liblega-c.a(strncpy.o)

.data%z16       0x00000000        0x0
 .data          0x00000000        0x0 d:/programas/microchip/xc32/v2.10/bin/bin/../../lib/gcc/pic32mx/4.8.3/../../../../pic32mx/lib\liblega-c.a(strncpy.o)

.bss%z17        0x00000000        0x0
 .bss           0x00000000        0x0 d:/programas/microchip/xc32/v2.10/bin/bin/../../lib/gcc/pic32mx/4.8.3/../../../../pic32mx/lib\libpic32.a(defaultinterrupt.o)

.data%z18       0x00000000        0x0
 .data          0x00000000        0x0 d:/programas/microchip/xc32/v2.10/bin/bin/../../lib/gcc/pic32mx/4.8.3/../../../../pic32mx/lib\libpic32.a(defaultinterrupt.o)

.bss%z19        0x00000000        0x0
 .bss           0x00000000        0x0 d:/programas/microchip/xc32/v2.10/bin/bin/../../lib/gcc/pic32mx/4.8.3/../../../../pic32mx/lib\libpic32.a(default-general-exception-handler.o)

.data%z20       0x00000000        0x0
 .data          0x00000000        0x0 d:/programas/microchip/xc32/v2.10/bin/bin/../../lib/gcc/pic32mx/4.8.3/../../../../pic32mx/lib\libpic32.a(default-general-exception-handler.o)

.bss%z21        0x00000000        0x0
 .bss           0x00000000        0x0 d:/programas/microchip/xc32/v2.10/bin/bin/../../lib/gcc/pic32mx/4.8.3/../../../../pic32mx/lib\libpic32.a(vector51.o)

.data%z22       0x00000000        0x0
 .data          0x00000000        0x0 d:/programas/microchip/xc32/v2.10/bin/bin/../../lib/gcc/pic32mx/4.8.3/../../../../pic32mx/lib\libpic32.a(vector51.o)

.bss%z23        0x00000000        0x0
 .bss           0x00000000        0x0 d:/programas/microchip/xc32/v2.10/bin/bin/../../lib/gcc/pic32mx/4.8.3/../../../../pic32mx/lib\libpic32.a(vector50.o)

.data%z24       0x00000000        0x0
 .data          0x00000000        0x0 d:/programas/microchip/xc32/v2.10/bin/bin/../../lib/gcc/pic32mx/4.8.3/../../../../pic32mx/lib\libpic32.a(vector50.o)

.bss%z25        0x00000000        0x0
 .bss           0x00000000        0x0 d:/programas/microchip/xc32/v2.10/bin/bin/../../lib/gcc/pic32mx/4.8.3/../../../../pic32mx/lib\libpic32.a(vector49.o)

.data%z26       0x00000000        0x0
 .data          0x00000000        0x0 d:/programas/microchip/xc32/v2.10/bin/bin/../../lib/gcc/pic32mx/4.8.3/../../../../pic32mx/lib\libpic32.a(vector49.o)

.bss%z27        0x00000000        0x0
 .bss           0x00000000        0x0 d:/programas/microchip/xc32/v2.10/bin/bin/../../lib/gcc/pic32mx/4.8.3/../../../../pic32mx/lib\libpic32.a(vector48.o)

.data%z28       0x00000000        0x0
 .data          0x00000000        0x0 d:/programas/microchip/xc32/v2.10/bin/bin/../../lib/gcc/pic32mx/4.8.3/../../../../pic32mx/lib\libpic32.a(vector48.o)

.bss%z29        0x00000000        0x0
 .bss           0x00000000        0x0 d:/programas/microchip/xc32/v2.10/bin/bin/../../lib/gcc/pic32mx/4.8.3/../../../../pic32mx/lib\libpic32.a(vector47.o)

.data%z30       0x00000000        0x0
 .data          0x00000000        0x0 d:/programas/microchip/xc32/v2.10/bin/bin/../../lib/gcc/pic32mx/4.8.3/../../../../pic32mx/lib\libpic32.a(vector47.o)

.bss%z31        0x00000000        0x0
 .bss           0x00000000        0x0 d:/programas/microchip/xc32/v2.10/bin/bin/../../lib/gcc/pic32mx/4.8.3/../../../../pic32mx/lib\libpic32.a(vector46.o)

.data%z32       0x00000000        0x0
 .data          0x00000000        0x0 d:/programas/microchip/xc32/v2.10/bin/bin/../../lib/gcc/pic32mx/4.8.3/../../../../pic32mx/lib\libpic32.a(vector46.o)

.bss%z33        0x00000000        0x0
 .bss           0x00000000        0x0 d:/programas/microchip/xc32/v2.10/bin/bin/../../lib/gcc/pic32mx/4.8.3/../../../../pic32mx/lib\libpic32.a(vector45.o)

.data%z34       0x00000000        0x0
 .data          0x00000000        0x0 d:/programas/microchip/xc32/v2.10/bin/bin/../../lib/gcc/pic32mx/4.8.3/../../../../pic32mx/lib\libpic32.a(vector45.o)

.bss%z35        0x00000000        0x0
 .bss           0x00000000        0x0 d:/programas/microchip/xc32/v2.10/bin/bin/../../lib/gcc/pic32mx/4.8.3/../../../../pic32mx/lib\libpic32.a(vector44.o)

.data%z36       0x00000000        0x0
 .data          0x00000000        0x0 d:/programas/microchip/xc32/v2.10/bin/bin/../../lib/gcc/pic32mx/4.8.3/../../../../pic32mx/lib\libpic32.a(vector44.o)

.bss%z37        0x00000000        0x0
 .bss           0x00000000        0x0 d:/programas/microchip/xc32/v2.10/bin/bin/../../lib/gcc/pic32mx/4.8.3/../../../../pic32mx/lib\libpic32.a(vector43.o)

.data%z38       0x00000000        0x0
 .data          0x00000000        0x0 d:/programas/microchip/xc32/v2.10/bin/bin/../../lib/gcc/pic32mx/4.8.3/../../../../pic32mx/lib\libpic32.a(vector43.o)

.bss%z39        0x00000000        0x0
 .bss           0x00000000        0x0 d:/programas/microchip/xc32/v2.10/bin/bin/../../lib/gcc/pic32mx/4.8.3/../../../../pic32mx/lib\libpic32.a(vector42.o)

.data%z40       0x00000000        0x0
 .data          0x00000000        0x0 d:/programas/microchip/xc32/v2.10/bin/bin/../../lib/gcc/pic32mx/4.8.3/../../../../pic32mx/lib\libpic32.a(vector42.o)

.bss%z41        0x00000000        0x0
 .bss           0x00000000        0x0 d:/programas/microchip/xc32/v2.10/bin/bin/../../lib/gcc/pic32mx/4.8.3/../../../../pic32mx/lib\libpic32.a(vector41.o)

.data%z42       0x00000000        0x0
 .data          0x00000000        0x0 d:/programas/microchip/xc32/v2.10/bin/bin/../../lib/gcc/pic32mx/4.8.3/../../../../pic32mx/lib\libpic32.a(vector41.o)

.bss%z43        0x00000000        0x0
 .bss           0x00000000        0x0 d:/programas/microchip/xc32/v2.10/bin/bin/../../lib/gcc/pic32mx/4.8.3/../../../../pic32mx/lib\libpic32.a(vector40.o)

.data%z44       0x00000000        0x0
 .data          0x00000000        0x0 d:/programas/microchip/xc32/v2.10/bin/bin/../../lib/gcc/pic32mx/4.8.3/../../../../pic32mx/lib\libpic32.a(vector40.o)

.bss%z45        0x00000000        0x0
 .bss           0x00000000        0x0 d:/programas/microchip/xc32/v2.10/bin/bin/../../lib/gcc/pic32mx/4.8.3/../../../../pic32mx/lib\libpic32.a(vector39.o)

.data%z46       0x00000000        0x0
 .data          0x00000000        0x0 d:/programas/microchip/xc32/v2.10/bin/bin/../../lib/gcc/pic32mx/4.8.3/../../../../pic32mx/lib\libpic32.a(vector39.o)

.bss%z47        0x00000000        0x0
 .bss           0x00000000        0x0 d:/programas/microchip/xc32/v2.10/bin/bin/../../lib/gcc/pic32mx/4.8.3/../../../../pic32mx/lib\libpic32.a(vector38.o)

.data%z48       0x00000000        0x0
 .data          0x00000000        0x0 d:/programas/microchip/xc32/v2.10/bin/bin/../../lib/gcc/pic32mx/4.8.3/../../../../pic32mx/lib\libpic32.a(vector38.o)

.bss%z49        0x00000000        0x0
 .bss           0x00000000        0x0 d:/programas/microchip/xc32/v2.10/bin/bin/../../lib/gcc/pic32mx/4.8.3/../../../../pic32mx/lib\libpic32.a(vector37.o)

.data%z50       0x00000000        0x0
 .data          0x00000000        0x0 d:/programas/microchip/xc32/v2.10/bin/bin/../../lib/gcc/pic32mx/4.8.3/../../../../pic32mx/lib\libpic32.a(vector37.o)

.bss%z51        0x00000000        0x0
 .bss           0x00000000        0x0 d:/programas/microchip/xc32/v2.10/bin/bin/../../lib/gcc/pic32mx/4.8.3/../../../../pic32mx/lib\libpic32.a(vector36.o)

.data%z52       0x00000000        0x0
 .data          0x00000000        0x0 d:/programas/microchip/xc32/v2.10/bin/bin/../../lib/gcc/pic32mx/4.8.3/../../../../pic32mx/lib\libpic32.a(vector36.o)

.bss%z53        0x00000000        0x0
 .bss           0x00000000        0x0 d:/programas/microchip/xc32/v2.10/bin/bin/../../lib/gcc/pic32mx/4.8.3/../../../../pic32mx/lib\libpic32.a(vector35.o)

.data%z54       0x00000000        0x0
 .data          0x00000000        0x0 d:/programas/microchip/xc32/v2.10/bin/bin/../../lib/gcc/pic32mx/4.8.3/../../../../pic32mx/lib\libpic32.a(vector35.o)

.bss%z55        0x00000000        0x0
 .bss           0x00000000        0x0 d:/programas/microchip/xc32/v2.10/bin/bin/../../lib/gcc/pic32mx/4.8.3/../../../../pic32mx/lib\libpic32.a(vector34.o)

.data%z56       0x00000000        0x0
 .data          0x00000000        0x0 d:/programas/microchip/xc32/v2.10/bin/bin/../../lib/gcc/pic32mx/4.8.3/../../../../pic32mx/lib\libpic32.a(vector34.o)

.bss%z57        0x00000000        0x0
 .bss           0x00000000        0x0 d:/programas/microchip/xc32/v2.10/bin/bin/../../lib/gcc/pic32mx/4.8.3/../../../../pic32mx/lib\libpic32.a(vector33.o)

.data%z58       0x00000000        0x0
 .data          0x00000000        0x0 d:/programas/microchip/xc32/v2.10/bin/bin/../../lib/gcc/pic32mx/4.8.3/../../../../pic32mx/lib\libpic32.a(vector33.o)

.bss%z59        0x00000000        0x0
 .bss           0x00000000        0x0 d:/programas/microchip/xc32/v2.10/bin/bin/../../lib/gcc/pic32mx/4.8.3/../../../../pic32mx/lib\libpic32.a(vector32.o)

.data%z60       0x00000000        0x0
 .data          0x00000000        0x0 d:/programas/microchip/xc32/v2.10/bin/bin/../../lib/gcc/pic32mx/4.8.3/../../../../pic32mx/lib\libpic32.a(vector32.o)

.bss%z61        0x00000000        0x0
 .bss           0x00000000        0x0 d:/programas/microchip/xc32/v2.10/bin/bin/../../lib/gcc/pic32mx/4.8.3/../../../../pic32mx/lib\libpic32.a(vector31.o)

.data%z62       0x00000000        0x0
 .data          0x00000000        0x0 d:/programas/microchip/xc32/v2.10/bin/bin/../../lib/gcc/pic32mx/4.8.3/../../../../pic32mx/lib\libpic32.a(vector31.o)

.bss%z63        0x00000000        0x0
 .bss           0x00000000        0x0 d:/programas/microchip/xc32/v2.10/bin/bin/../../lib/gcc/pic32mx/4.8.3/../../../../pic32mx/lib\libpic32.a(vector30.o)

.data%z64       0x00000000        0x0
 .data          0x00000000        0x0 d:/programas/microchip/xc32/v2.10/bin/bin/../../lib/gcc/pic32mx/4.8.3/../../../../pic32mx/lib\libpic32.a(vector30.o)

.bss%z65        0x00000000        0x0
 .bss           0x00000000        0x0 d:/programas/microchip/xc32/v2.10/bin/bin/../../lib/gcc/pic32mx/4.8.3/../../../../pic32mx/lib\libpic32.a(vector29.o)

.data%z66       0x00000000        0x0
 .data          0x00000000        0x0 d:/programas/microchip/xc32/v2.10/bin/bin/../../lib/gcc/pic32mx/4.8.3/../../../../pic32mx/lib\libpic32.a(vector29.o)

.bss%z67        0x00000000        0x0
 .bss           0x00000000        0x0 d:/programas/microchip/xc32/v2.10/bin/bin/../../lib/gcc/pic32mx/4.8.3/../../../../pic32mx/lib\libpic32.a(vector28.o)

.data%z68       0x00000000        0x0
 .data          0x00000000        0x0 d:/programas/microchip/xc32/v2.10/bin/bin/../../lib/gcc/pic32mx/4.8.3/../../../../pic32mx/lib\libpic32.a(vector28.o)

.bss%z69        0x00000000        0x0
 .bss           0x00000000        0x0 d:/programas/microchip/xc32/v2.10/bin/bin/../../lib/gcc/pic32mx/4.8.3/../../../../pic32mx/lib\libpic32.a(vector27.o)

.data%z70       0x00000000        0x0
 .data          0x00000000        0x0 d:/programas/microchip/xc32/v2.10/bin/bin/../../lib/gcc/pic32mx/4.8.3/../../../../pic32mx/lib\libpic32.a(vector27.o)

.bss%z71        0x00000000        0x0
 .bss           0x00000000        0x0 d:/programas/microchip/xc32/v2.10/bin/bin/../../lib/gcc/pic32mx/4.8.3/../../../../pic32mx/lib\libpic32.a(vector26.o)

.data%z72       0x00000000        0x0
 .data          0x00000000        0x0 d:/programas/microchip/xc32/v2.10/bin/bin/../../lib/gcc/pic32mx/4.8.3/../../../../pic32mx/lib\libpic32.a(vector26.o)

.bss%z73        0x00000000        0x0
 .bss           0x00000000        0x0 d:/programas/microchip/xc32/v2.10/bin/bin/../../lib/gcc/pic32mx/4.8.3/../../../../pic32mx/lib\libpic32.a(vector25.o)

.data%z74       0x00000000        0x0
 .data          0x00000000        0x0 d:/programas/microchip/xc32/v2.10/bin/bin/../../lib/gcc/pic32mx/4.8.3/../../../../pic32mx/lib\libpic32.a(vector25.o)

.bss%z75        0x00000000        0x0
 .bss           0x00000000        0x0 d:/programas/microchip/xc32/v2.10/bin/bin/../../lib/gcc/pic32mx/4.8.3/../../../../pic32mx/lib\libpic32.a(vector24.o)

.data%z76       0x00000000        0x0
 .data          0x00000000        0x0 d:/programas/microchip/xc32/v2.10/bin/bin/../../lib/gcc/pic32mx/4.8.3/../../../../pic32mx/lib\libpic32.a(vector24.o)

.bss%z77        0x00000000        0x0
 .bss           0x00000000        0x0 d:/programas/microchip/xc32/v2.10/bin/bin/../../lib/gcc/pic32mx/4.8.3/../../../../pic32mx/lib\libpic32.a(vector23.o)

.data%z78       0x00000000        0x0
 .data          0x00000000        0x0 d:/programas/microchip/xc32/v2.10/bin/bin/../../lib/gcc/pic32mx/4.8.3/../../../../pic32mx/lib\libpic32.a(vector23.o)

.bss%z79        0x00000000        0x0
 .bss           0x00000000        0x0 d:/programas/microchip/xc32/v2.10/bin/bin/../../lib/gcc/pic32mx/4.8.3/../../../../pic32mx/lib\libpic32.a(vector22.o)

.data%z80       0x00000000        0x0
 .data          0x00000000        0x0 d:/programas/microchip/xc32/v2.10/bin/bin/../../lib/gcc/pic32mx/4.8.3/../../../../pic32mx/lib\libpic32.a(vector22.o)

.bss%z81        0x00000000        0x0
 .bss           0x00000000        0x0 d:/programas/microchip/xc32/v2.10/bin/bin/../../lib/gcc/pic32mx/4.8.3/../../../../pic32mx/lib\libpic32.a(vector21.o)

.data%z82       0x00000000        0x0
 .data          0x00000000        0x0 d:/programas/microchip/xc32/v2.10/bin/bin/../../lib/gcc/pic32mx/4.8.3/../../../../pic32mx/lib\libpic32.a(vector21.o)

.bss%z83        0x00000000        0x0
 .bss           0x00000000        0x0 d:/programas/microchip/xc32/v2.10/bin/bin/../../lib/gcc/pic32mx/4.8.3/../../../../pic32mx/lib\libpic32.a(vector20.o)

.data%z84       0x00000000        0x0
 .data          0x00000000        0x0 d:/programas/microchip/xc32/v2.10/bin/bin/../../lib/gcc/pic32mx/4.8.3/../../../../pic32mx/lib\libpic32.a(vector20.o)

.bss%z85        0x00000000        0x0
 .bss           0x00000000        0x0 d:/programas/microchip/xc32/v2.10/bin/bin/../../lib/gcc/pic32mx/4.8.3/../../../../pic32mx/lib\libpic32.a(vector19.o)

.data%z86       0x00000000        0x0
 .data          0x00000000        0x0 d:/programas/microchip/xc32/v2.10/bin/bin/../../lib/gcc/pic32mx/4.8.3/../../../../pic32mx/lib\libpic32.a(vector19.o)

.bss%z87        0x00000000        0x0
 .bss           0x00000000        0x0 d:/programas/microchip/xc32/v2.10/bin/bin/../../lib/gcc/pic32mx/4.8.3/../../../../pic32mx/lib\libpic32.a(vector18.o)

.data%z88       0x00000000        0x0
 .data          0x00000000        0x0 d:/programas/microchip/xc32/v2.10/bin/bin/../../lib/gcc/pic32mx/4.8.3/../../../../pic32mx/lib\libpic32.a(vector18.o)

.bss%z89        0x00000000        0x0
 .bss           0x00000000        0x0 d:/programas/microchip/xc32/v2.10/bin/bin/../../lib/gcc/pic32mx/4.8.3/../../../../pic32mx/lib\libpic32.a(vector17.o)

.data%z90       0x00000000        0x0
 .data          0x00000000        0x0 d:/programas/microchip/xc32/v2.10/bin/bin/../../lib/gcc/pic32mx/4.8.3/../../../../pic32mx/lib\libpic32.a(vector17.o)

.bss%z91        0x00000000        0x0
 .bss           0x00000000        0x0 d:/programas/microchip/xc32/v2.10/bin/bin/../../lib/gcc/pic32mx/4.8.3/../../../../pic32mx/lib\libpic32.a(vector16.o)

.data%z92       0x00000000        0x0
 .data          0x00000000        0x0 d:/programas/microchip/xc32/v2.10/bin/bin/../../lib/gcc/pic32mx/4.8.3/../../../../pic32mx/lib\libpic32.a(vector16.o)

.bss%z93        0x00000000        0x0
 .bss           0x00000000        0x0 d:/programas/microchip/xc32/v2.10/bin/bin/../../lib/gcc/pic32mx/4.8.3/../../../../pic32mx/lib\libpic32.a(vector15.o)

.data%z94       0x00000000        0x0
 .data          0x00000000        0x0 d:/programas/microchip/xc32/v2.10/bin/bin/../../lib/gcc/pic32mx/4.8.3/../../../../pic32mx/lib\libpic32.a(vector15.o)

.bss%z95        0x00000000        0x0
 .bss           0x00000000        0x0 d:/programas/microchip/xc32/v2.10/bin/bin/../../lib/gcc/pic32mx/4.8.3/../../../../pic32mx/lib\libpic32.a(vector14.o)

.data%z96       0x00000000        0x0
 .data          0x00000000        0x0 d:/programas/microchip/xc32/v2.10/bin/bin/../../lib/gcc/pic32mx/4.8.3/../../../../pic32mx/lib\libpic32.a(vector14.o)

.bss%z97        0x00000000        0x0
 .bss           0x00000000        0x0 d:/programas/microchip/xc32/v2.10/bin/bin/../../lib/gcc/pic32mx/4.8.3/../../../../pic32mx/lib\libpic32.a(vector13.o)

.data%z98       0x00000000        0x0
 .data          0x00000000        0x0 d:/programas/microchip/xc32/v2.10/bin/bin/../../lib/gcc/pic32mx/4.8.3/../../../../pic32mx/lib\libpic32.a(vector13.o)

.bss%z99        0x00000000        0x0
 .bss           0x00000000        0x0 d:/programas/microchip/xc32/v2.10/bin/bin/../../lib/gcc/pic32mx/4.8.3/../../../../pic32mx/lib\libpic32.a(vector12.o)

.data%z100      0x00000000        0x0
 .data          0x00000000        0x0 d:/programas/microchip/xc32/v2.10/bin/bin/../../lib/gcc/pic32mx/4.8.3/../../../../pic32mx/lib\libpic32.a(vector12.o)

.bss%z101       0x00000000        0x0
 .bss           0x00000000        0x0 d:/programas/microchip/xc32/v2.10/bin/bin/../../lib/gcc/pic32mx/4.8.3/../../../../pic32mx/lib\libpic32.a(vector11.o)

.data%z102      0x00000000        0x0
 .data          0x00000000        0x0 d:/programas/microchip/xc32/v2.10/bin/bin/../../lib/gcc/pic32mx/4.8.3/../../../../pic32mx/lib\libpic32.a(vector11.o)

.bss%z103       0x00000000        0x0
 .bss           0x00000000        0x0 d:/programas/microchip/xc32/v2.10/bin/bin/../../lib/gcc/pic32mx/4.8.3/../../../../pic32mx/lib\libpic32.a(vector10.o)

.data%z104      0x00000000        0x0
 .data          0x00000000        0x0 d:/programas/microchip/xc32/v2.10/bin/bin/../../lib/gcc/pic32mx/4.8.3/../../../../pic32mx/lib\libpic32.a(vector10.o)

.bss%z105       0x00000000        0x0
 .bss           0x00000000        0x0 d:/programas/microchip/xc32/v2.10/bin/bin/../../lib/gcc/pic32mx/4.8.3/../../../../pic32mx/lib\libpic32.a(vector9.o)

.data%z106      0x00000000        0x0
 .data          0x00000000        0x0 d:/programas/microchip/xc32/v2.10/bin/bin/../../lib/gcc/pic32mx/4.8.3/../../../../pic32mx/lib\libpic32.a(vector9.o)

.bss%z107       0x00000000        0x0
 .bss           0x00000000        0x0 d:/programas/microchip/xc32/v2.10/bin/bin/../../lib/gcc/pic32mx/4.8.3/../../../../pic32mx/lib\libpic32.a(vector8.o)

.data%z108      0x00000000        0x0
 .data          0x00000000        0x0 d:/programas/microchip/xc32/v2.10/bin/bin/../../lib/gcc/pic32mx/4.8.3/../../../../pic32mx/lib\libpic32.a(vector8.o)

.bss%z109       0x00000000        0x0
 .bss           0x00000000        0x0 d:/programas/microchip/xc32/v2.10/bin/bin/../../lib/gcc/pic32mx/4.8.3/../../../../pic32mx/lib\libpic32.a(vector7.o)

.data%z110      0x00000000        0x0
 .data          0x00000000        0x0 d:/programas/microchip/xc32/v2.10/bin/bin/../../lib/gcc/pic32mx/4.8.3/../../../../pic32mx/lib\libpic32.a(vector7.o)

.bss%z111       0x00000000        0x0
 .bss           0x00000000        0x0 d:/programas/microchip/xc32/v2.10/bin/bin/../../lib/gcc/pic32mx/4.8.3/../../../../pic32mx/lib\libpic32.a(vector6.o)

.data%z112      0x00000000        0x0
 .data          0x00000000        0x0 d:/programas/microchip/xc32/v2.10/bin/bin/../../lib/gcc/pic32mx/4.8.3/../../../../pic32mx/lib\libpic32.a(vector6.o)

.bss%z113       0x00000000        0x0
 .bss           0x00000000        0x0 d:/programas/microchip/xc32/v2.10/bin/bin/../../lib/gcc/pic32mx/4.8.3/../../../../pic32mx/lib\libpic32.a(vector5.o)

.data%z114      0x00000000        0x0
 .data          0x00000000        0x0 d:/programas/microchip/xc32/v2.10/bin/bin/../../lib/gcc/pic32mx/4.8.3/../../../../pic32mx/lib\libpic32.a(vector5.o)

.bss%z115       0x00000000        0x0
 .bss           0x00000000        0x0 d:/programas/microchip/xc32/v2.10/bin/bin/../../lib/gcc/pic32mx/4.8.3/../../../../pic32mx/lib\libpic32.a(vector3.o)

.data%z116      0x00000000        0x0
 .data          0x00000000        0x0 d:/programas/microchip/xc32/v2.10/bin/bin/../../lib/gcc/pic32mx/4.8.3/../../../../pic32mx/lib\libpic32.a(vector3.o)

.bss%z117       0x00000000        0x0
 .bss           0x00000000        0x0 d:/programas/microchip/xc32/v2.10/bin/bin/../../lib/gcc/pic32mx/4.8.3/../../../../pic32mx/lib\libpic32.a(vector2.o)

.data%z118      0x00000000        0x0
 .data          0x00000000        0x0 d:/programas/microchip/xc32/v2.10/bin/bin/../../lib/gcc/pic32mx/4.8.3/../../../../pic32mx/lib\libpic32.a(vector2.o)

.bss%z119       0x00000000        0x0
 .bss           0x00000000        0x0 d:/programas/microchip/xc32/v2.10/bin/bin/../../lib/gcc/pic32mx/4.8.3/../../../../pic32mx/lib\libpic32.a(vector1.o)

.data%z120      0x00000000        0x0
 .data          0x00000000        0x0 d:/programas/microchip/xc32/v2.10/bin/bin/../../lib/gcc/pic32mx/4.8.3/../../../../pic32mx/lib\libpic32.a(vector1.o)

.bss%z121       0x00000000        0x0
 .bss           0x00000000        0x0 d:/programas/microchip/xc32/v2.10/bin/bin/../../lib/gcc/pic32mx/4.8.3/../../../../pic32mx/lib\libpic32.a(vector0.o)

.data%z122      0x00000000        0x0
 .data          0x00000000        0x0 d:/programas/microchip/xc32/v2.10/bin/bin/../../lib/gcc/pic32mx/4.8.3/../../../../pic32mx/lib\libpic32.a(vector0.o)

.bss%z123       0x00000000        0x0
 .bss           0x00000000        0x0 d:/programas/microchip/xc32/v2.10/bin/bin/../../lib/gcc/pic32mx/4.8.3/../../../../pic32mx/lib\libpic32.a(general-exception.o)

.data%z124      0x00000000        0x0
 .data          0x00000000        0x0 d:/programas/microchip/xc32/v2.10/bin/bin/../../lib/gcc/pic32mx/4.8.3/../../../../pic32mx/lib\libpic32.a(general-exception.o)

.bss%z125       0x00000000        0x0
 .bss           0x00000000        0x0 d:/programas/microchip/xc32/v2.10/bin/bin/../../lib/gcc/pic32mx/4.8.3/../../../../pic32mx/lib\libpic32.a(pic32_data_init.o)

.data%z126      0x00000000        0x0
 .data          0x00000000        0x0 d:/programas/microchip/xc32/v2.10/bin/bin/../../lib/gcc/pic32mx/4.8.3/../../../../pic32mx/lib\libpic32.a(pic32_data_init.o)

.bss%z127       0x00000000        0x0
 .bss           0x00000000        0x0 d:/programas/microchip/xc32/v2.10/bin/bin/../../lib/gcc/pic32mx/4.8.3/../../../../pic32mx/lib\libpic32.a(default-nmi-handler.o)

.data%z128      0x00000000        0x0
 .data          0x00000000        0x0 d:/programas/microchip/xc32/v2.10/bin/bin/../../lib/gcc/pic32mx/4.8.3/../../../../pic32mx/lib\libpic32.a(default-nmi-handler.o)

.bss%z129       0x00000000        0x0
 .bss           0x00000000        0x0 d:/programas/microchip/xc32/v2.10/bin/bin/../../lib/gcc/pic32mx/4.8.3/../../../../pic32mx/lib\libpic32.a(default-on-bootstrap.o)

.data%z130      0x00000000        0x0
 .data          0x00000000        0x0 d:/programas/microchip/xc32/v2.10/bin/bin/../../lib/gcc/pic32mx/4.8.3/../../../../pic32mx/lib\libpic32.a(default-on-bootstrap.o)

.bss%z131       0x00000000        0x0
 .bss           0x00000000        0x0 d:/programas/microchip/xc32/v2.10/bin/bin/../../lib/gcc/pic32mx/4.8.3/../../../../pic32mx/lib\libpic32.a(default-on-reset.o)

.data%z132      0x00000000        0x0
 .data          0x00000000        0x0 d:/programas/microchip/xc32/v2.10/bin/bin/../../lib/gcc/pic32mx/4.8.3/../../../../pic32mx/lib\libpic32.a(default-on-reset.o)

.bss%z133       0x00000000        0x0
 .bss           0x00000000        0x0 d:/programas/microchip/xc32/v2.10/bin/bin/../../lib/gcc/pic32mx/4.8.3/../../../../pic32mx/lib\libpic32.a(default-bootstrap-exception-handler.o)

.data%z134      0x00000000        0x0
 .data          0x00000000        0x0 d:/programas/microchip/xc32/v2.10/bin/bin/../../lib/gcc/pic32mx/4.8.3/../../../../pic32mx/lib\libpic32.a(default-bootstrap-exception-handler.o)

.bss%z135       0x00000000        0x0
 .bss           0x00000000        0x0 d:/programas/microchip/xc32/v2.10/bin/bin/../../lib/gcc/pic32mx/4.8.3/../../../../pic32mx/lib\libpic32.a(strlen.o)

.data%z136      0x00000000        0x0
 .data          0x00000000        0x0 d:/programas/microchip/xc32/v2.10/bin/bin/../../lib/gcc/pic32mx/4.8.3/../../../../pic32mx/lib\libpic32.a(strlen.o)

.bss%z137       0x00000000        0x0
 .bss           0x00000000        0x0 d:/programas/microchip/xc32/v2.10/bin/bin/../../lib/gcc/pic32mx/4.8.3/../../../../pic32mx/lib\libpic32.a(strcpy.o)

.data%z138      0x00000000        0x0
 .data          0x00000000        0x0 d:/programas/microchip/xc32/v2.10/bin/bin/../../lib/gcc/pic32mx/4.8.3/../../../../pic32mx/lib\libpic32.a(strcpy.o)

.bss%z139       0x00000000        0x0
 .bss           0x00000000        0x0 d:/programas/microchip/xc32/v2.10/bin/bin/../../lib/gcc/pic32mx/4.8.3/../../../../pic32mx/lib\libpic32.a(strcmp.o)

.data%z140      0x00000000        0x0
 .data          0x00000000        0x0 d:/programas/microchip/xc32/v2.10/bin/bin/../../lib/gcc/pic32mx/4.8.3/../../../../pic32mx/lib\libpic32.a(strcmp.o)

.bss%z141       0x00000000        0x0
 .bss           0x00000000        0x0 d:/programas/microchip/xc32/v2.10/bin/bin/../../lib/gcc/pic32mx/4.8.3/../../../../pic32mx/lib\libpic32.a(memset.o)

.data%z142      0x00000000        0x0
 .data          0x00000000        0x0 d:/programas/microchip/xc32/v2.10/bin/bin/../../lib/gcc/pic32mx/4.8.3/../../../../pic32mx/lib\libpic32.a(memset.o)

.bss%z143       0x00000000        0x0
 .bss           0x00000000        0x0 d:/programas/microchip/xc32/v2.10/bin/bin/../../lib/gcc/pic32mx/4.8.3/../../../../pic32mx/lib\libpic32.a(memcpy.o)

.data%z144      0x00000000        0x0
 .data          0x00000000        0x0 d:/programas/microchip/xc32/v2.10/bin/bin/../../lib/gcc/pic32mx/4.8.3/../../../../pic32mx/lib\libpic32.a(memcpy.o)

.bss%z145       0x00000000        0x0
 .bss           0x00000000        0x0 d:/programas/microchip/xc32/v2.10/bin/bin/../../lib/gcc/pic32mx/4.8.3\libgcc.a(floatunsisf.o)

.data%z146      0x00000000        0x0
 .data          0x00000000        0x0 d:/programas/microchip/xc32/v2.10/bin/bin/../../lib/gcc/pic32mx/4.8.3\libgcc.a(floatunsisf.o)

.bss%z147       0x00000000        0x0
 .bss           0x00000000        0x0 d:/programas/microchip/xc32/v2.10/bin/bin/../../lib/gcc/pic32mx/4.8.3\libgcc.a(_umoddi3.o)

.data%z148      0x00000000        0x0
 .data          0x00000000        0x0 d:/programas/microchip/xc32/v2.10/bin/bin/../../lib/gcc/pic32mx/4.8.3\libgcc.a(_umoddi3.o)

.bss%z149       0x00000000        0x0
 .bss           0x00000000        0x0 d:/programas/microchip/xc32/v2.10/bin/bin/../../lib/gcc/pic32mx/4.8.3\libgcc.a(_udivdi3.o)

.data%z150      0x00000000        0x0
 .data          0x00000000        0x0 d:/programas/microchip/xc32/v2.10/bin/bin/../../lib/gcc/pic32mx/4.8.3\libgcc.a(_udivdi3.o)

.bss%z151       0x00000000        0x0
 .bss           0x00000000        0x0 d:/programas/microchip/xc32/v2.10/bin/bin/../../lib/gcc/pic32mx/4.8.3/../../../../pic32mx/lib/./proc/32MX795F512H\processor.o

.data%z152      0x00000000        0x0
 .data          0x00000000        0x0 d:/programas/microchip/xc32/v2.10/bin/bin/../../lib/gcc/pic32mx/4.8.3/../../../../pic32mx/lib/./proc/32MX795F512H\processor.o

.bss%z153       0x00000000        0x0
 .bss           0x00000000        0x0 d:/programas/microchip/xc32/v2.10/bin/bin/../../lib/gcc/pic32mx/4.8.3/../../../../pic32mx/lib\pic32_software_reset.o

.data%z154      0x00000000        0x0
 .data          0x00000000        0x0 d:/programas/microchip/xc32/v2.10/bin/bin/../../lib/gcc/pic32mx/4.8.3/../../../../pic32mx/lib\pic32_software_reset.o

.bss%z155       0x00000000        0x0
 .bss           0x00000000        0x0 d:/programas/microchip/xc32/v2.10/bin/bin/../../lib/gcc/pic32mx/4.8.3/../../../../pic32mx/lib/./proc/32MX795F512H\default_isr_vectors.o

.data%z156      0x00000000        0x0
 .data          0x00000000        0x0 d:/programas/microchip/xc32/v2.10/bin/bin/../../lib/gcc/pic32mx/4.8.3/../../../../pic32mx/lib/./proc/32MX795F512H\default_isr_vectors.o

.bss%z157       0x00000000        0x0
 .bss           0x00000000        0x0 build/default/production/uart.o

.data%z158      0x00000000        0x0
 .data          0x00000000        0x0 build/default/production/uart.o

.bss%z159       0x00000000        0x0
 .bss           0x00000000        0x0 build/default/production/delay.o

.data%z160      0x00000000        0x0
 .data          0x00000000        0x0 build/default/production/delay.o

.bss%z161       0x00000000        0x0
 .bss           0x00000000        0x0 build/default/production/RA8875.o

.data%z162      0x00000000        0x0
 .data          0x00000000        0x0 build/default/production/RA8875.o

.bss%z163       0x00000000        0x0
 .bss           0x00000000        0x0 build/default/production/main.o

.data%z164      0x00000000        0x0
 .data          0x00000000        0x0 build/default/production/main.o

.bss%z165       0x00000000        0x0
 .bss           0x00000000        0x0 build/default/production/lvgl/src/lv_themes/lv_theme_zen.o

.data%z166      0x00000000        0x0
 .data          0x00000000        0x0 build/default/production/lvgl/src/lv_themes/lv_theme_zen.o

.bss%z167       0x00000000        0x0
 .bss           0x00000000        0x0 build/default/production/lvgl/src/lv_themes/lv_theme_templ.o

.data%z168      0x00000000        0x0
 .data          0x00000000        0x0 build/default/production/lvgl/src/lv_themes/lv_theme_templ.o

.bss%z169       0x00000000        0x0
 .bss           0x00000000        0x0 build/default/production/lvgl/src/lv_themes/lv_theme_night.o

.data%z170      0x00000000        0x0
 .data          0x00000000        0x0 build/default/production/lvgl/src/lv_themes/lv_theme_night.o

.bss%z171       0x00000000        0x0
 .bss           0x00000000        0x0 build/default/production/lvgl/src/lv_themes/lv_theme_nemo.o

.data%z172      0x00000000        0x0
 .data          0x00000000        0x0 build/default/production/lvgl/src/lv_themes/lv_theme_nemo.o

.bss%z173       0x00000000        0x0
 .bss           0x00000000        0x0 build/default/production/lvgl/src/lv_themes/lv_theme_mono.o

.data%z174      0x00000000        0x0
 .data          0x00000000        0x0 build/default/production/lvgl/src/lv_themes/lv_theme_mono.o

.bss%z175       0x00000000        0x0
 .bss           0x00000000        0x0 build/default/production/lvgl/src/lv_themes/lv_theme_material.o

.data%z176      0x00000000        0x0
 .data          0x00000000        0x0 build/default/production/lvgl/src/lv_themes/lv_theme_material.o

.bss%z177       0x00000000        0x0
 .bss           0x00000000        0x0 build/default/production/lvgl/src/lv_themes/lv_theme_default.o

.data%z178      0x00000000        0x0
 .data          0x00000000        0x0 build/default/production/lvgl/src/lv_themes/lv_theme_default.o

.bss%z179       0x00000000        0x0
 .bss           0x00000000        0x0 build/default/production/lvgl/src/lv_themes/lv_theme_alien.o

.data%z180      0x00000000        0x0
 .data          0x00000000        0x0 build/default/production/lvgl/src/lv_themes/lv_theme_alien.o

.bss%z181       0x00000000        0x0
 .bss           0x00000000        0x0 build/default/production/lvgl/src/lv_themes/lv_theme.o

.data%z182      0x00000000        0x0
 .data          0x00000000        0x0 build/default/production/lvgl/src/lv_themes/lv_theme.o

.bss%z183       0x00000000        0x0
 .bss           0x00000000        0x0 build/default/production/lvgl/src/lv_objx/lv_win.o

.data%z184      0x00000000        0x0
 .data          0x00000000        0x0 build/default/production/lvgl/src/lv_objx/lv_win.o

.bss%z185       0x00000000        0x0
 .bss           0x00000000        0x0 build/default/production/lvgl/src/lv_objx/lv_tileview.o

.data%z186      0x00000000        0x0
 .data          0x00000000        0x0 build/default/production/lvgl/src/lv_objx/lv_tileview.o

.bss%z187       0x00000000        0x0
 .bss           0x00000000        0x0 build/default/production/lvgl/src/lv_objx/lv_tabview.o

.data%z188      0x00000000        0x0
 .data          0x00000000        0x0 build/default/production/lvgl/src/lv_objx/lv_tabview.o

.bss%z189       0x00000000        0x0
 .bss           0x00000000        0x0 build/default/production/lvgl/src/lv_objx/lv_table.o

.data%z190      0x00000000        0x0
 .data          0x00000000        0x0 build/default/production/lvgl/src/lv_objx/lv_table.o

.bss%z191       0x00000000        0x0
 .bss           0x00000000        0x0 build/default/production/lvgl/src/lv_objx/lv_ta.o

.data%z192      0x00000000        0x0
 .data          0x00000000        0x0 build/default/production/lvgl/src/lv_objx/lv_ta.o

.bss%z193       0x00000000        0x0
 .bss           0x00000000        0x0 build/default/production/lvgl/src/lv_objx/lv_sw.o

.data%z194      0x00000000        0x0
 .data          0x00000000        0x0 build/default/production/lvgl/src/lv_objx/lv_sw.o

.bss%z195       0x00000000        0x0
 .bss           0x00000000        0x0 build/default/production/lvgl/src/lv_objx/lv_spinbox.o

.data%z196      0x00000000        0x0
 .data          0x00000000        0x0 build/default/production/lvgl/src/lv_objx/lv_spinbox.o

.bss%z197       0x00000000        0x0
 .bss           0x00000000        0x0 build/default/production/lvgl/src/lv_objx/lv_slider.o

.data%z198      0x00000000        0x0
 .data          0x00000000        0x0 build/default/production/lvgl/src/lv_objx/lv_slider.o

.bss%z199       0x00000000        0x0
 .bss           0x00000000        0x0 build/default/production/lvgl/src/lv_objx/lv_roller.o

.data%z200      0x00000000        0x0
 .data          0x00000000        0x0 build/default/production/lvgl/src/lv_objx/lv_roller.o

.bss%z201       0x00000000        0x0
 .bss           0x00000000        0x0 build/default/production/lvgl/src/lv_objx/lv_preload.o

.data%z202      0x00000000        0x0
 .data          0x00000000        0x0 build/default/production/lvgl/src/lv_objx/lv_preload.o

.bss%z203       0x00000000        0x0
 .bss           0x00000000        0x0 build/default/production/lvgl/src/lv_objx/lv_page.o

.data%z204      0x00000000        0x0
 .data          0x00000000        0x0 build/default/production/lvgl/src/lv_objx/lv_page.o

.bss%z205       0x00000000        0x0
 .bss           0x00000000        0x0 build/default/production/lvgl/src/lv_objx/lv_objx_templ.o

.data%z206      0x00000000        0x0
 .data          0x00000000        0x0 build/default/production/lvgl/src/lv_objx/lv_objx_templ.o

.bss%z207       0x00000000        0x0
 .bss           0x00000000        0x0 build/default/production/lvgl/src/lv_objx/lv_mbox.o

.data%z208      0x00000000        0x0
 .data          0x00000000        0x0 build/default/production/lvgl/src/lv_objx/lv_mbox.o

.bss%z209       0x00000000        0x0
 .bss           0x00000000        0x0 build/default/production/lvgl/src/lv_objx/lv_lmeter.o

.data%z210      0x00000000        0x0
 .data          0x00000000        0x0 build/default/production/lvgl/src/lv_objx/lv_lmeter.o

.bss%z211       0x00000000        0x0
 .bss           0x00000000        0x0 build/default/production/lvgl/src/lv_objx/lv_list.o

.data%z212      0x00000000        0x0
 .data          0x00000000        0x0 build/default/production/lvgl/src/lv_objx/lv_list.o

.bss%z213       0x00000000        0x0
 .bss           0x00000000        0x0 build/default/production/lvgl/src/lv_objx/lv_line.o

.data%z214      0x00000000        0x0
 .data          0x00000000        0x0 build/default/production/lvgl/src/lv_objx/lv_line.o

.bss%z215       0x00000000        0x0
 .bss           0x00000000        0x0 build/default/production/lvgl/src/lv_objx/lv_led.o

.data%z216      0x00000000        0x0
 .data          0x00000000        0x0 build/default/production/lvgl/src/lv_objx/lv_led.o

.bss%z217       0x00000000        0x0
 .bss           0x00000000        0x0 build/default/production/lvgl/src/lv_objx/lv_label.o

.data%z218      0x00000000        0x0
 .data          0x00000000        0x0 build/default/production/lvgl/src/lv_objx/lv_label.o

.bss%z219       0x00000000        0x0
 .bss           0x00000000        0x0 build/default/production/lvgl/src/lv_objx/lv_kb.o

.bss%z220       0x00000000        0x0
 .bss           0x00000000        0x0 build/default/production/lvgl/src/lv_objx/lv_imgbtn.o

.data%z221      0x00000000        0x0
 .data          0x00000000        0x0 build/default/production/lvgl/src/lv_objx/lv_imgbtn.o

.bss%z222       0x00000000        0x0
 .bss           0x00000000        0x0 build/default/production/lvgl/src/lv_objx/lv_img.o

.data%z223      0x00000000        0x0
 .data          0x00000000        0x0 build/default/production/lvgl/src/lv_objx/lv_img.o

.bss%z224       0x00000000        0x0
 .bss           0x00000000        0x0 build/default/production/lvgl/src/lv_objx/lv_gauge.o

.data%z225      0x00000000        0x0
 .data          0x00000000        0x0 build/default/production/lvgl/src/lv_objx/lv_gauge.o

.bss%z226       0x00000000        0x0
 .bss           0x00000000        0x0 build/default/production/lvgl/src/lv_objx/lv_ddlist.o

.data%z227      0x00000000        0x0
 .data          0x00000000        0x0 build/default/production/lvgl/src/lv_objx/lv_ddlist.o

.bss%z228       0x00000000        0x0
 .bss           0x00000000        0x0 build/default/production/lvgl/src/lv_objx/lv_cpicker.o

.data%z229      0x00000000        0x0
 .data          0x00000000        0x0 build/default/production/lvgl/src/lv_objx/lv_cpicker.o

.bss%z230       0x00000000        0x0
 .bss           0x00000000        0x0 build/default/production/lvgl/src/lv_objx/lv_cont.o

.data%z231      0x00000000        0x0
 .data          0x00000000        0x0 build/default/production/lvgl/src/lv_objx/lv_cont.o

.bss%z232       0x00000000        0x0
 .bss           0x00000000        0x0 build/default/production/lvgl/src/lv_objx/lv_chart.o

.data%z233      0x00000000        0x0
 .data          0x00000000        0x0 build/default/production/lvgl/src/lv_objx/lv_chart.o

.bss%z234       0x00000000        0x0
 .bss           0x00000000        0x0 build/default/production/lvgl/src/lv_objx/lv_cb.o

.data%z235      0x00000000        0x0
 .data          0x00000000        0x0 build/default/production/lvgl/src/lv_objx/lv_cb.o

.bss%z236       0x00000000        0x0
 .bss           0x00000000        0x0 build/default/production/lvgl/src/lv_objx/lv_canvas.o

.data%z237      0x00000000        0x0
 .data          0x00000000        0x0 build/default/production/lvgl/src/lv_objx/lv_canvas.o

.bss%z238       0x00000000        0x0
 .bss           0x00000000        0x0 build/default/production/lvgl/src/lv_objx/lv_calendar.o

.data%z239      0x00000000        0x0
 .data          0x00000000        0x0 build/default/production/lvgl/src/lv_objx/lv_calendar.o

.bss%z240       0x00000000        0x0
 .bss           0x00000000        0x0 build/default/production/lvgl/src/lv_objx/lv_btnm.o

.bss%z241       0x00000000        0x0
 .bss           0x00000000        0x0 build/default/production/lvgl/src/lv_objx/lv_btn.o

.data%z242      0x00000000        0x0
 .data          0x00000000        0x0 build/default/production/lvgl/src/lv_objx/lv_btn.o

.bss%z243       0x00000000        0x0
 .bss           0x00000000        0x0 build/default/production/lvgl/src/lv_objx/lv_bar.o

.data%z244      0x00000000        0x0
 .data          0x00000000        0x0 build/default/production/lvgl/src/lv_objx/lv_bar.o

.bss%z245       0x00000000        0x0
 .bss           0x00000000        0x0 build/default/production/lvgl/src/lv_objx/lv_arc.o

.data%z246      0x00000000        0x0
 .data          0x00000000        0x0 build/default/production/lvgl/src/lv_objx/lv_arc.o

.bss%z247       0x00000000        0x0
 .bss           0x00000000        0x0 build/default/production/lvgl/src/lv_misc/lv_utils.o

.data%z248      0x00000000        0x0
 .data          0x00000000        0x0 build/default/production/lvgl/src/lv_misc/lv_utils.o

.bss%z249       0x00000000        0x0
 .bss           0x00000000        0x0 build/default/production/lvgl/src/lv_misc/lv_txt.o

.data%z250      0x00000000        0x0
 .data          0x00000000        0x0 build/default/production/lvgl/src/lv_misc/lv_txt.o

.bss%z251       0x00000000        0x0
 .bss           0x00000000        0x0 build/default/production/lvgl/src/lv_misc/lv_templ.o

.data%z252      0x00000000        0x0
 .data          0x00000000        0x0 build/default/production/lvgl/src/lv_misc/lv_templ.o

.bss%z253       0x00000000        0x0
 .bss           0x00000000        0x0 build/default/production/lvgl/src/lv_misc/lv_task.o

.data%z254      0x00000000        0x0
 .data          0x00000000        0x0 build/default/production/lvgl/src/lv_misc/lv_task.o

.bss%z255       0x00000000        0x0
 .bss           0x00000000        0x0 build/default/production/lvgl/src/lv_misc/lv_printf.o

.data%z256      0x00000000        0x0
 .data          0x00000000        0x0 build/default/production/lvgl/src/lv_misc/lv_printf.o

.data%z257      0x00000000        0x0
 .data          0x00000000        0x0 build/default/production/lvgl/src/lv_misc/lv_mem.o

.bss%z258       0x00000000        0x0
 .bss           0x00000000        0x0 build/default/production/lvgl/src/lv_misc/lv_math.o

.data%z259      0x00000000        0x0
 .data          0x00000000        0x0 build/default/production/lvgl/src/lv_misc/lv_math.o

.bss%z260       0x00000000        0x0
 .bss           0x00000000        0x0 build/default/production/lvgl/src/lv_misc/lv_log.o

.data%z261      0x00000000        0x0
 .data          0x00000000        0x0 build/default/production/lvgl/src/lv_misc/lv_log.o

.bss%z262       0x00000000        0x0
 .bss           0x00000000        0x0 build/default/production/lvgl/src/lv_misc/lv_ll.o

.data%z263      0x00000000        0x0
 .data          0x00000000        0x0 build/default/production/lvgl/src/lv_misc/lv_ll.o

.bss%z264       0x00000000        0x0
 .bss           0x00000000        0x0 build/default/production/lvgl/src/lv_misc/lv_gc.o

.data%z265      0x00000000        0x0
 .data          0x00000000        0x0 build/default/production/lvgl/src/lv_misc/lv_gc.o

.bss%z266       0x00000000        0x0
 .bss           0x00000000        0x0 build/default/production/lvgl/src/lv_misc/lv_fs.o

.data%z267      0x00000000        0x0
 .data          0x00000000        0x0 build/default/production/lvgl/src/lv_misc/lv_fs.o

.bss%z268       0x00000000        0x0
 .bss           0x00000000        0x0 build/default/production/lvgl/src/lv_misc/lv_color.o

.data%z269      0x00000000        0x0
 .data          0x00000000        0x0 build/default/production/lvgl/src/lv_misc/lv_color.o

.bss%z270       0x00000000        0x0
 .bss           0x00000000        0x0 build/default/production/lvgl/src/lv_misc/lv_circ.o

.data%z271      0x00000000        0x0
 .data          0x00000000        0x0 build/default/production/lvgl/src/lv_misc/lv_circ.o

.bss%z272       0x00000000        0x0
 .bss           0x00000000        0x0 build/default/production/lvgl/src/lv_misc/lv_bidi.o

.data%z273      0x00000000        0x0
 .data          0x00000000        0x0 build/default/production/lvgl/src/lv_misc/lv_bidi.o

.bss%z274       0x00000000        0x0
 .bss           0x00000000        0x0 build/default/production/lvgl/src/lv_misc/lv_async.o

.data%z275      0x00000000        0x0
 .data          0x00000000        0x0 build/default/production/lvgl/src/lv_misc/lv_async.o

.bss%z276       0x00000000        0x0
 .bss           0x00000000        0x0 build/default/production/lvgl/src/lv_misc/lv_area.o

.data%z277      0x00000000        0x0
 .data          0x00000000        0x0 build/default/production/lvgl/src/lv_misc/lv_area.o

.bss%z278       0x00000000        0x0
 .bss           0x00000000        0x0 build/default/production/lvgl/src/lv_misc/lv_anim.o

.data%z279      0x00000000        0x0
 .data          0x00000000        0x0 build/default/production/lvgl/src/lv_misc/lv_anim.o

.bss%z280       0x00000000        0x0
 .bss           0x00000000        0x0 build/default/production/lvgl/src/lv_hal/lv_hal_tick.o

.data%z281      0x00000000        0x0
 .data          0x00000000        0x0 build/default/production/lvgl/src/lv_hal/lv_hal_tick.o

.bss%z282       0x00000000        0x0
 .bss           0x00000000        0x0 build/default/production/lvgl/src/lv_hal/lv_hal_indev.o

.data%z283      0x00000000        0x0
 .data          0x00000000        0x0 build/default/production/lvgl/src/lv_hal/lv_hal_indev.o

.bss%z284       0x00000000        0x0
 .bss           0x00000000        0x0 build/default/production/lvgl/src/lv_hal/lv_hal_disp.o

.data%z285      0x00000000        0x0
 .data          0x00000000        0x0 build/default/production/lvgl/src/lv_hal/lv_hal_disp.o

.bss%z286       0x00000000        0x0
 .bss           0x00000000        0x0 build/default/production/lvgl/src/lv_font/lv_font_unscii_8.o

.data%z287      0x00000000        0x0
 .data          0x00000000        0x0 build/default/production/lvgl/src/lv_font/lv_font_unscii_8.o

.bss%z288       0x00000000        0x0
 .bss           0x00000000        0x0 build/default/production/lvgl/src/lv_font/lv_font_roboto_28_compressed.o

.bss%z289       0x00000000        0x0
 .bss           0x00000000        0x0 build/default/production/lvgl/src/lv_font/lv_font_roboto_28.o

.data%z290      0x00000000        0x0
 .data          0x00000000        0x0 build/default/production/lvgl/src/lv_font/lv_font_roboto_28.o

.bss%z291       0x00000000        0x0
 .bss           0x00000000        0x0 build/default/production/lvgl/src/lv_font/lv_font_roboto_22.o

.data%z292      0x00000000        0x0
 .data          0x00000000        0x0 build/default/production/lvgl/src/lv_font/lv_font_roboto_22.o

.bss%z293       0x00000000        0x0
 .bss           0x00000000        0x0 build/default/production/lvgl/src/lv_font/lv_font_roboto_16.o

.bss%z294       0x00000000        0x0
 .bss           0x00000000        0x0 build/default/production/lvgl/src/lv_font/lv_font_roboto_12_subpx.o

.bss%z295       0x00000000        0x0
 .bss           0x00000000        0x0 build/default/production/lvgl/src/lv_font/lv_font_roboto_12.o

.data%z296      0x00000000        0x0
 .data          0x00000000        0x0 build/default/production/lvgl/src/lv_font/lv_font_roboto_12.o

.bss%z297       0x00000000        0x0
 .bss           0x00000000        0x0 build/default/production/lvgl/src/lv_font/lv_font_fmt_txt.o

.data%z298      0x00000000        0x0
 .data          0x00000000        0x0 build/default/production/lvgl/src/lv_font/lv_font_fmt_txt.o

.bss%z299       0x00000000        0x0
 .bss           0x00000000        0x0 build/default/production/lvgl/src/lv_font/lv_font.o

.data%z300      0x00000000        0x0
 .data          0x00000000        0x0 build/default/production/lvgl/src/lv_font/lv_font.o

.bss%z301       0x00000000        0x0
 .bss           0x00000000        0x0 build/default/production/lvgl/src/lv_draw/lv_img_decoder.o

.data%z302      0x00000000        0x0
 .data          0x00000000        0x0 build/default/production/lvgl/src/lv_draw/lv_img_decoder.o

.bss%z303       0x00000000        0x0
 .bss           0x00000000        0x0 build/default/production/lvgl/src/lv_draw/lv_img_cache.o

.data%z304      0x00000000        0x0
 .data          0x00000000        0x0 build/default/production/lvgl/src/lv_draw/lv_img_cache.o

.bss%z305       0x00000000        0x0
 .bss           0x00000000        0x0 build/default/production/lvgl/src/lv_draw/lv_draw_triangle.o

.data%z306      0x00000000        0x0
 .data          0x00000000        0x0 build/default/production/lvgl/src/lv_draw/lv_draw_triangle.o

.bss%z307       0x00000000        0x0
 .bss           0x00000000        0x0 build/default/production/lvgl/src/lv_draw/lv_draw_rect.o

.data%z308      0x00000000        0x0
 .data          0x00000000        0x0 build/default/production/lvgl/src/lv_draw/lv_draw_rect.o

.bss%z309       0x00000000        0x0
 .bss           0x00000000        0x0 build/default/production/lvgl/src/lv_draw/lv_draw_line.o

.data%z310      0x00000000        0x0
 .data          0x00000000        0x0 build/default/production/lvgl/src/lv_draw/lv_draw_line.o

.bss%z311       0x00000000        0x0
 .bss           0x00000000        0x0 build/default/production/lvgl/src/lv_draw/lv_draw_label.o

.data%z312      0x00000000        0x0
 .data          0x00000000        0x0 build/default/production/lvgl/src/lv_draw/lv_draw_label.o

.bss%z313       0x00000000        0x0
 .bss           0x00000000        0x0 build/default/production/lvgl/src/lv_draw/lv_draw_img.o

.data%z314      0x00000000        0x0
 .data          0x00000000        0x0 build/default/production/lvgl/src/lv_draw/lv_draw_img.o

.data%z315      0x00000000        0x0
 .data          0x00000000        0x0 build/default/production/lvgl/src/lv_draw/lv_draw_basic.o

.bss%z316       0x00000000        0x0
 .bss           0x00000000        0x0 build/default/production/lvgl/src/lv_draw/lv_draw_arc.o

.data%z317      0x00000000        0x0
 .data          0x00000000        0x0 build/default/production/lvgl/src/lv_draw/lv_draw_arc.o

.bss%z318       0x00000000        0x0
 .bss           0x00000000        0x0 build/default/production/lvgl/src/lv_draw/lv_draw.o

.data%z319      0x00000000        0x0
 .data          0x00000000        0x0 build/default/production/lvgl/src/lv_draw/lv_draw.o

.bss%z320       0x00000000        0x0
 .bss           0x00000000        0x0 build/default/production/lvgl/src/lv_core/lv_style.o

.data%z321      0x00000000        0x0
 .data          0x00000000        0x0 build/default/production/lvgl/src/lv_core/lv_style.o

.bss%z322       0x00000000        0x0
 .bss           0x00000000        0x0 build/default/production/lvgl/src/lv_core/lv_refr.o

.data%z323      0x00000000        0x0
 .data          0x00000000        0x0 build/default/production/lvgl/src/lv_core/lv_refr.o

.bss%z324       0x00000000        0x0
 .bss           0x00000000        0x0 build/default/production/lvgl/src/lv_core/lv_obj.o

.data%z325      0x00000000        0x0
 .data          0x00000000        0x0 build/default/production/lvgl/src/lv_core/lv_obj.o

.bss%z326       0x00000000        0x0
 .bss           0x00000000        0x0 build/default/production/lvgl/src/lv_core/lv_indev.o

.data%z327      0x00000000        0x0
 .data          0x00000000        0x0 build/default/production/lvgl/src/lv_core/lv_indev.o

.bss%z328       0x00000000        0x0
 .bss           0x00000000        0x0 build/default/production/lvgl/src/lv_core/lv_group.o

.data%z329      0x00000000        0x0
 .data          0x00000000        0x0 build/default/production/lvgl/src/lv_core/lv_group.o

.bss%z330       0x00000000        0x0
 .bss           0x00000000        0x0 build/default/production/lvgl/src/lv_core/lv_disp.o

.data%z331      0x00000000        0x0
 .data          0x00000000        0x0 build/default/production/lvgl/src/lv_core/lv_disp.o

.bss%z332       0x00000000        0x0
 .bss           0x00000000        0x0 build/default/production/lvgl/src/lv_core/lv_debug.o

.data%z333      0x00000000        0x0
 .data          0x00000000        0x0 build/default/production/lvgl/src/lv_core/lv_debug.o

.bss%z334       0x00000000        0x0
 .bss           0x00000000        0x0 build/default/production/lvgl/porting/lv_port_indev_template.o

.data%z335      0x00000000        0x0
 .data          0x00000000        0x0 build/default/production/lvgl/porting/lv_port_indev_template.o

.bss%z336       0x00000000        0x0
 .bss           0x00000000        0x0 build/default/production/lvgl/porting/lv_port_fs_template.o

.data%z337      0x00000000        0x0
 .data          0x00000000        0x0 build/default/production/lvgl/porting/lv_port_fs_template.o

.bss%z338       0x00000000        0x0
 .bss           0x00000000        0x0 build/default/production/lvgl/porting/lv_port_disp_template.o

.data%z339      0x00000000        0x0
 .data          0x00000000        0x0 build/default/production/lvgl/porting/lv_port_disp_template.o

.bss%z340       0x00000000        0x0
 .bss           0x00000000        0x0 d:/programas/microchip/xc32/v2.10/bin/bin/../../lib/gcc/pic32mx/4.8.3/../../../../pic32mx/lib\debug-exception-return.o

.data%z341      0x00000000        0x0
 .data          0x00000000        0x0 d:/programas/microchip/xc32/v2.10/bin/bin/../../lib/gcc/pic32mx/4.8.3/../../../../pic32mx/lib\debug-exception-return.o

.bss%z342       0x00000000        0x0
 .bss           0x00000000        0x0 d:/programas/microchip/xc32/v2.10/bin/bin/../../lib/gcc/pic32mx/4.8.3/../../../../pic32mx/lib/./proc/32MX795F512H/crt0_mips32r2.o

.data%z343      0x00000000        0x0
 .data          0x00000000        0x0 d:/programas/microchip/xc32/v2.10/bin/bin/../../lib/gcc/pic32mx/4.8.3/../../../../pic32mx/lib/./proc/32MX795F512H/crt0_mips32r2.o

._debug_exception
                0xbfc00480       0x2c
 ._debug_exception
                0xbfc00480       0x2c d:/programas/microchip/xc32/v2.10/bin/bin/../../lib/gcc/pic32mx/4.8.3/../../../../pic32mx/lib\debug-exception-return.o
                0xbfc00480                __DbgExecReturn

.rodata         0x9d000000     0x5bf4
 .rodata        0x9d000000     0x5bf4 build/default/production/lvgl/src/lv_font/lv_font_roboto_12_subpx.o

.text           0x9d005bf4     0x3e3c
 .text          0x9d005bf4     0x3e3c build/default/production/lvgl/src/lv_core/lv_obj.o
                0x9d005cdc                lv_init
                0x9d005d74                lv_deinit
                0x9d005da4                lv_obj_del_async
                0x9d005df8                lv_obj_set_auto_realign
                0x9d005e54                lv_obj_set_ext_click_area
                0x9d005e98                lv_obj_set_click
                0x9d005ef4                lv_obj_set_top
                0x9d005f50                lv_obj_set_drag
                0x9d005fc0                lv_obj_set_drag_dir
                0x9d006038                lv_obj_set_drag_throw
                0x9d006094                lv_obj_set_drag_parent
                0x9d0060f0                lv_obj_set_parent_event
                0x9d00614c                lv_obj_set_opa_scale_enable
                0x9d0061a8                lv_obj_set_protect
                0x9d006204                lv_obj_clear_protect
                0x9d006264                lv_obj_set_event_cb
                0x9d0062b8                lv_event_send_func
                0x9d0063e0                lv_event_send
                0x9d006460                lv_event_get_data
                0x9d006468                lv_obj_set_signal_cb
                0x9d0064bc                lv_signal_send
                0x9d006530                lv_obj_set_design_cb
                0x9d006584                lv_obj_allocate_ext_attr
                0x9d0065e4                lv_obj_get_parent
                0x9d00662c                lv_obj_get_screen
                0x9d006688                lv_obj_get_disp
                0x9d006780                lv_obj_get_child
                0x9d006870                lv_obj_set_base_dir
                0x9d0068c0                lv_obj_get_child_back
                0x9d006930                lv_obj_count_children
                0x9d0069b8                lv_obj_count_children_recursive
                0x9d006a5c                lv_obj_get_coords
                0x9d006ad0                lv_obj_get_x
                0x9d006b34                lv_obj_get_y
                0x9d006b98                lv_obj_get_width
                0x9d006bf0                lv_obj_get_height
                0x9d006c48                lv_obj_get_auto_realign
                0x9d006c94                lv_obj_get_ext_click_pad_left
                0x9d006cdc                lv_obj_get_ext_click_pad_right
                0x9d006d24                lv_obj_get_ext_click_pad_top
                0x9d006d6c                lv_obj_get_ext_click_pad_bottom
                0x9d006db4                lv_obj_get_ext_draw_pad
                0x9d006dfc                lv_obj_get_hidden
                0x9d006e48                lv_obj_invalidate_area
                0x9d006fb0                lv_obj_invalidate
                0x9d007040                lv_obj_move_foreground
                0x9d0070ec                lv_obj_move_background
                0x9d007198                lv_obj_set_pos
                0x9d0072d0                lv_obj_set_x
                0x9d007338                lv_obj_set_y
                0x9d0073a0                lv_obj_align
                0x9d007988                lv_obj_align_origo
                0x9d007e5c                lv_obj_realign
                0x9d007ee8                lv_obj_set_parent
                0x9d008008                lv_obj_refresh_style
                0x9d0080f4                lv_obj_set_style
                0x9d008208                lv_obj_report_style_mod
                0x9d0082d4                lv_obj_set_hidden
                0x9d00837c                lv_obj_set_opa_scale
                0x9d0083d8                lv_obj_refresh_ext_draw_pad
                0x9d00843c                lv_obj_create
                0x9d0088cc                lv_obj_set_size
                0x9d008a0c                lv_obj_set_width
                0x9d008a74                lv_obj_set_height
                0x9d008adc                lv_obj_get_click
                0x9d008b28                lv_obj_get_top
                0x9d008b74                lv_obj_get_drag
                0x9d008bc0                lv_obj_get_drag_dir
                0x9d008c0c                lv_obj_get_drag_throw
                0x9d008c58                lv_obj_get_drag_parent
                0x9d008c64                lv_obj_get_parent_event
                0x9d008cb0                lv_obj_get_base_dir
                0x9d008cb8                lv_obj_get_opa_scale_enable
                0x9d008d04                lv_obj_get_opa_scale
                0x9d008d94                lv_obj_get_protect
                0x9d008ddc                lv_obj_is_protected
                0x9d008e38                lv_obj_get_signal_cb
                0x9d008e80                lv_obj_get_design_cb
                0x9d008ec8                lv_obj_get_event_cb
                0x9d008f10                lv_obj_get_ext_attr
                0x9d008f58                lv_obj_get_type
                0x9d009090                lv_obj_get_group
                0x9d009244                lv_obj_del
                0x9d009468                lv_obj_clean
                0x9d0094f0                lv_obj_get_style
                0x9d009714                lv_obj_get_inner_coords
                0x9d0097f8                lv_obj_get_width_fit
                0x9d00986c                lv_obj_get_height_fit
                0x9d0098e0                lv_obj_is_focused
                0x9d009940                lv_obj_handle_get_type_signal

.rodata         0x9d009a30     0x3dac
 .rodata        0x9d009a30     0x3dac build/default/production/lvgl/src/lv_font/lv_font_roboto_28_compressed.o

.text           0x9d00d7dc     0x3580
 .text          0x9d00d7dc     0x3580 build/default/production/lvgl/src/lv_objx/lv_ta.o
                0x9d00dd2c                lv_ta_set_cursor_click_pos
                0x9d00dd90                lv_ta_set_accepted_chars
                0x9d00ddec                lv_ta_set_max_length
                0x9d00de48                lv_ta_set_insert_replace
                0x9d00de9c                lv_ta_set_text_sel
                0x9d00dee0                lv_ta_set_pwd_show_time
                0x9d00df3c                lv_ta_set_cursor_blink_time
                0x9d00e008                lv_ta_get_text
                0x9d00e134                lv_ta_get_placeholder_text
                0x9d00e19c                lv_ta_get_label
                0x9d00e1ec                lv_ta_get_cursor_pos
                0x9d00e654                lv_ta_set_cursor_pos
                0x9d00eba8                lv_ta_set_cursor_type
                0x9d00ec24                lv_ta_set_one_line
                0x9d00ede8                lv_ta_set_text_align
                0x9d00ef34                lv_ta_set_placeholder_text
                0x9d00f030                lv_ta_set_style
                0x9d00f14c                lv_ta_get_cursor_type
                0x9d00f1a0                lv_ta_get_cursor_click_pos
                0x9d00f1f4                lv_ta_get_pwd_mode
                0x9d00f248                lv_ta_get_one_line
                0x9d00f29c                lv_ta_get_accepted_chars
                0x9d00f2ec                lv_ta_get_max_length
                0x9d00f33c                lv_ta_get_style
                0x9d00f430                lv_ta_create
                0x9d00f87c                lv_ta_text_is_selected
                0x9d00f8c4                lv_ta_get_text_sel_en
                0x9d00f90c                lv_ta_get_pwd_show_time
                0x9d00f95c                lv_ta_get_cursor_blink_time
                0x9d00f9ac                lv_ta_clear_selection
                0x9d00f9f0                lv_ta_add_char
                0x9d00fce0                lv_ta_add_text
                0x9d00ffb8                lv_ta_del_char
                0x9d0101b0                lv_ta_del_char_forward
                0x9d010230                lv_ta_set_text
                0x9d010498                lv_ta_set_pwd_mode
                0x9d010620                lv_ta_cursor_right
                0x9d01067c                lv_ta_cursor_left
                0x9d0106e0                lv_ta_cursor_down
                0x9d0107c4                lv_ta_cursor_up

.rodata         0x9d010d5c     0x33ec
 .rodata        0x9d010d5c     0x33ec build/default/production/lvgl/src/lv_font/lv_font_roboto_16.o

.text           0x9d014148     0x565c
 .text          0x9d014148     0x2e04 build/default/production/lvgl/src/lv_objx/lv_chart.o
                0x9d015a74                lv_chart_create
                0x9d015d64                lv_chart_add_series
                0x9d015ea8                lv_chart_clear_serie
                0x9d015f7c                lv_chart_set_div_line_count
                0x9d016008                lv_chart_set_series_opa
                0x9d016078                lv_chart_set_series_width
                0x9d0160e8                lv_chart_set_series_darking
                0x9d016158                lv_chart_set_update_mode
                0x9d0161d4                lv_chart_set_x_tick_length
                0x9d016240                lv_chart_set_y_tick_length
                0x9d0162ac                lv_chart_set_secondary_y_tick_length
                0x9d016318                lv_chart_set_x_tick_texts
                0x9d0163bc                lv_chart_set_y_tick_texts
                0x9d016460                lv_chart_set_secondary_y_tick_texts
                0x9d016504                lv_chart_set_margin
                0x9d016568                lv_chart_get_type
                0x9d0165b8                lv_chart_get_point_cnt
                0x9d016608                lv_chart_get_series_opa
                0x9d016658                lv_chart_get_series_width
                0x9d0166a8                lv_chart_get_series_darking
                0x9d0166f8                lv_chart_refresh
                0x9d016744                lv_chart_set_range
                0x9d0167d0                lv_chart_set_type
                0x9d016840                lv_chart_set_point_count
                0x9d016ad0                lv_chart_init_points
                0x9d016b9c                lv_chart_set_points
                0x9d016c4c                lv_chart_set_next
                0x9d016efc                lv_chart_get_margin
 .text          0x9d016f4c     0x2858 build/default/production/lvgl/src/lv_objx/lv_label.o
                0x9d0171d0                lv_label_set_align
                0x9d01724c                lv_label_set_body_draw
                0x9d0172d0                lv_label_set_text_sel_start
                0x9d017314                lv_label_set_text_sel_end
                0x9d017358                lv_label_get_text
                0x9d0173a8                lv_label_get_long_mode
                0x9d0173fc                lv_label_get_align
                0x9d017458                lv_label_get_recolor
                0x9d0174ac                lv_label_get_body_draw
                0x9d017500                lv_label_get_anim_speed
                0x9d017550                lv_label_get_letter_pos
                0x9d017884                lv_label_get_letter_on
                0x9d0183ec                lv_label_set_text
                0x9d01858c                lv_label_set_text_fmt
                0x9d01870c                lv_label_set_array_text
                0x9d018830                lv_label_set_static_text
                0x9d018904                lv_label_set_long_mode
                0x9d018a20                lv_label_set_recolor
                0x9d018a9c                lv_label_create
                0x9d018db4                lv_label_set_anim_speed
                0x9d018e3c                lv_label_get_text_sel_start
                0x9d018e84                lv_label_get_text_sel_end
                0x9d019254                lv_label_is_char_under_pos
                0x9d0195b8                lv_label_ins_text
                0x9d019708                lv_label_cut_text

.text           0x9d0197a4     0x4bb4
 .text          0x9d0197a4     0x26d4 build/default/production/lvgl/src/lv_objx/lv_page.o
                0x9d019f54                lv_page_set_sb_mode
                0x9d01a030                lv_page_set_anim_time
                0x9d01a08c                lv_page_set_scroll_propagation
                0x9d01a0f0                lv_page_set_edge_flash
                0x9d01a154                lv_page_set_style
                0x9d01a254                lv_page_get_scrl
                0x9d01a2a4                lv_page_clean
                0x9d01a2f8                lv_page_get_anim_time
                0x9d01a348                lv_page_get_sb_mode
                0x9d01a39c                lv_page_get_scroll_propagation
                0x9d01a3f0                lv_page_get_edge_flash
                0x9d01a444                lv_page_get_style
                0x9d01a4ec                lv_page_create
                0x9d01ac08                lv_page_get_fit_width
                0x9d01aca8                lv_page_get_fit_height
                0x9d01ad48                lv_page_on_edge
                0x9d01ae3c                lv_page_glue_obj
                0x9d01ae78                lv_page_focus
                0x9d01b174                lv_page_scroll_hor
                0x9d01b1f8                lv_page_scroll_ver
                0x9d01b7a4                lv_page_start_edge_flash
 .text          0x9d01be78     0x24e0 build/default/production/lvgl/src/lv_objx/lv_tabview.o
                0x9d01c134                lv_tabview_clean
                0x9d01c188                lv_tabview_set_sliding
                0x9d01c1ec                lv_tabview_set_anim_time
                0x9d01c248                lv_tabview_get_tab_act
                0x9d01c298                lv_tabview_get_tab_count
                0x9d01c2e8                lv_tabview_get_tab
                0x9d01c39c                lv_tabview_get_sliding
                0x9d01c3f0                lv_tabview_get_anim_time
                0x9d01c440                lv_tabview_get_style
                0x9d01c550                lv_tabview_set_tab_act
                0x9d01d714                lv_tabview_set_style
                0x9d01d8a4                lv_tabview_set_btns_pos
                0x9d01d910                lv_tabview_set_btns_hidden
                0x9d01d97c                lv_tabview_add_tab
                0x9d01ddd0                lv_tabview_create
                0x9d01e2b0                lv_tabview_get_btns_pos
                0x9d01e304                lv_tabview_get_btns_hidden

.text           0x9d01e358     0x4418
 .text          0x9d01e358     0x22fc build/default/production/lvgl/src/lv_draw/lv_draw_rect.o
                0x9d01e3f8                lv_draw_rect
 .text          0x9d020654     0x211c build/default/production/lvgl/src/lv_objx/lv_cpicker.o
                0x9d0207d4                lv_cpicker_set_style
                0x9d02086c                lv_cpicker_set_color_mode_fixed
                0x9d0208d0                lv_cpicker_set_preview
                0x9d02093c                lv_cpicker_get_color_mode
                0x9d020990                lv_cpicker_get_color_mode_fixed
                0x9d0209e4                lv_cpicker_get_style
                0x9d020ba4                lv_cpicker_set_indic_colored
                0x9d020e64                lv_cpicker_create
                0x9d0210e8                lv_cpicker_set_type
                0x9d021174                lv_cpicker_set_hsv
                0x9d0212cc                lv_cpicker_set_color
                0x9d021378                lv_cpicker_set_color_mode
                0x9d021bd0                lv_cpicker_get_hue
                0x9d021c20                lv_cpicker_get_saturation
                0x9d021c70                lv_cpicker_get_value
                0x9d021cc0                lv_cpicker_get_hsv
                0x9d021d2c                lv_cpicker_set_hue
                0x9d021d74                lv_cpicker_set_saturation
                0x9d021dbc                lv_cpicker_set_value
                0x9d021e04                lv_cpicker_get_color
                0x9d0226c8                lv_cpicker_get_indic_colored
                0x9d02271c                lv_cpicker_get_preview

.text           0x9d022770     0x3efc
 .text          0x9d022770     0x2098 build/default/production/lvgl/src/lv_objx/lv_btnm.o
                0x9d0228f8                lv_btnm_set_pressed
                0x9d022984                lv_btnm_set_style
                0x9d022a94                lv_btnm_set_recolor
                0x9d022b00                lv_btnm_set_btn_ctrl
                0x9d022b98                lv_btnm_clear_btn_ctrl
                0x9d022c34                lv_btnm_set_btn_ctrl_all
                0x9d022cd4                lv_btnm_clear_btn_ctrl_all
                0x9d022d74                lv_btnm_get_map_array
                0x9d022dc4                lv_btnm_get_recolor
                0x9d022e18                lv_btnm_get_active_btn
                0x9d022e68                lv_btnm_get_pressed_btn
                0x9d022eb8                lv_btnm_get_btn_text
                0x9d022fd0                lv_btnm_get_active_btn_text
                0x9d02303c                lv_btnm_get_btn_ctrl
                0x9d023130                lv_btnm_set_one_toggle
                0x9d0231a0                lv_btnm_get_style
                0x9d0236c4                lv_btnm_set_map
                0x9d023cf8                lv_btnm_create
                0x9d023f8c                lv_btnm_set_ctrl_map
                0x9d024010                lv_btnm_set_btn_width
                0x9d0247b4                lv_btnm_get_one_toggle
 .text          0x9d024808     0x1e64 build/default/production/lvgl/src/lv_objx/lv_list.o
                0x9d0248d0                lv_list_clean
                0x9d024930                lv_list_set_single_mode
                0x9d024994                lv_list_set_btn_selected
                0x9d024ac4                lv_list_get_single_mode
                0x9d024b18                lv_list_get_btn_label
                0x9d024c08                lv_list_get_btn_text
                0x9d024c70                lv_list_get_btn_img
                0x9d024d60                lv_list_get_prev_btn
                0x9d024e10                lv_list_set_style
                0x9d024fc0                lv_list_get_next_btn
                0x9d0254f4                lv_list_remove
                0x9d0255e0                lv_list_get_btn_index
                0x9d0256cc                lv_list_get_size
                0x9d02571c                lv_list_get_btn_selected
                0x9d0259d8                lv_list_get_layout
                0x9d025a2c                lv_list_add_btn
                0x9d025d64                lv_list_create
                0x9d026080                lv_list_set_layout
                0x9d0261fc                lv_list_get_style
                0x9d026318                lv_list_up
                0x9d02649c                lv_list_down
                0x9d0265e0                lv_list_focus

.text           0x9d02666c     0x3be0
 .text          0x9d02666c     0x1e50 build/default/production/lvgl/src/lv_objx/lv_ddlist.o
                0x9d027118                lv_ddlist_set_options
                0x9d027290                lv_ddlist_set_selected
                0x9d02733c                lv_ddlist_set_fix_height
                0x9d0273ac                lv_ddlist_set_fix_width
                0x9d0274f0                lv_ddlist_set_draw_arrow
                0x9d027554                lv_ddlist_set_stay_open
                0x9d0275b8                lv_ddlist_set_style
                0x9d027684                lv_ddlist_set_align
                0x9d027760                lv_ddlist_get_options
                0x9d0277b4                lv_ddlist_get_selected
                0x9d027804                lv_ddlist_get_selected_str
                0x9d027974                lv_ddlist_get_fix_height
                0x9d0279c4                lv_ddlist_get_draw_arrow
                0x9d027a18                lv_ddlist_get_stay_open
                0x9d027a6c                lv_ddlist_get_style
                0x9d027b0c                lv_ddlist_create
                0x9d0283dc                lv_ddlist_get_align
                0x9d028400                lv_ddlist_open
                0x9d028460                lv_ddlist_close
 .text          0x9d0284bc     0x1d90 build/default/production/lvgl/src/lv_misc/lv_printf.o
                0x9d02a1cc                lv_snprintf
                0x9d02a210                lv_vsnprintf

.text           0x9d02a24c     0x3824
 .text          0x9d02a24c     0x1c48 build/default/production/lvgl/src/lv_core/lv_indev.o
                0x9d02b184                lv_indev_read_task
                0x9d02bc10                lv_indev_get_act
                0x9d02bc18                lv_indev_get_type
                0x9d02bc30                lv_indev_reset
                0x9d02bc90                lv_indev_init
                0x9d02bcac                lv_indev_reset_long_press
                0x9d02bce8                lv_indev_enable
                0x9d02bd04                lv_indev_set_cursor
                0x9d02bd64                lv_indev_set_group
                0x9d02bd88                lv_indev_set_button_points
                0x9d02bda0                lv_indev_get_point
                0x9d02bdd4                lv_indev_get_key
                0x9d02bdf0                lv_indev_is_dragging
                0x9d02be20                lv_indev_get_vect
                0x9d02be60                lv_indev_wait_release
                0x9d02be74                lv_indev_get_read_task
                0x9d02be8c                lv_indev_get_obj_act
 .text          0x9d02be94     0x1bdc build/default/production/lvgl/src/lv_objx/lv_calendar.o
                0x9d02c0f0                lv_calendar_set_today_date
                0x9d02c190                lv_calendar_set_showed_date
                0x9d02c230                lv_calendar_set_highlighted_dates
                0x9d02c2cc                lv_calendar_set_day_names
                0x9d02c358                lv_calendar_set_month_names
                0x9d02c3e4                lv_calendar_set_style
                0x9d02c4dc                lv_calendar_create
                0x9d02c838                lv_calendar_get_today_date
                0x9d02c884                lv_calendar_get_showed_date
                0x9d02c8d4                lv_calendar_get_pressed_date
                0x9d02c92c                lv_calendar_get_highlighted_dates
                0x9d02c97c                lv_calendar_get_highlighted_dates_num
                0x9d02c9cc                lv_calendar_get_day_names
                0x9d02ca1c                lv_calendar_get_month_names
                0x9d02ca6c                lv_calendar_get_style

.text           0x9d02da70     0x3574
 .text          0x9d02da70     0x1b6c build/default/production/lvgl/src/lv_objx/lv_canvas.o
                0x9d02dad0                lv_canvas_create
                0x9d02dbfc                lv_canvas_set_buffer
                0x9d02dcf4                lv_canvas_set_px
                0x9d02dd80                lv_canvas_set_palette
                0x9d02ddfc                lv_canvas_set_style
                0x9d02de6c                lv_canvas_get_img
                0x9d02debc                lv_canvas_get_style
                0x9d02df24                lv_canvas_get_px
                0x9d02dfcc                lv_canvas_copy_buf
                0x9d02e118                lv_canvas_rotate
                0x9d02ea3c                lv_canvas_fill_bg
                0x9d02eb28                lv_canvas_draw_rect
                0x9d02ecb0                lv_canvas_draw_text
                0x9d02ee90                lv_canvas_draw_img
                0x9d02f040                lv_canvas_draw_line
                0x9d02f2ec                lv_canvas_draw_polygon
                0x9d02f454                lv_canvas_draw_arc
 .text          0x9d02f5dc     0x1a08 build/default/production/lvgl/src/lv_objx/lv_table.o
                0x9d02ffc0                lv_table_set_cell_value
                0x9d030100                lv_table_set_row_cnt
                0x9d0301e4                lv_table_set_col_cnt
                0x9d0302d8                lv_table_set_col_width
                0x9d030360                lv_table_set_cell_align
                0x9d030458                lv_table_set_cell_type
                0x9d03056c                lv_table_set_cell_crop
                0x9d030664                lv_table_set_cell_merge_right
                0x9d03076c                lv_table_set_style
                0x9d03086c                lv_table_create
                0x9d030a94                lv_table_get_cell_value
                0x9d030b58                lv_table_get_row_cnt
                0x9d030ba8                lv_table_get_col_cnt
                0x9d030bf8                lv_table_get_col_width
                0x9d030c6c                lv_table_get_cell_align
                0x9d030d18                lv_table_get_cell_type
                0x9d030dc8                lv_table_get_cell_crop
                0x9d030e74                lv_table_get_cell_merge_right
                0x9d030f20                lv_table_get_style

.text           0x9d030fe4     0x2c6c
 .text          0x9d030fe4     0x16f8 build/default/production/lvgl/src/lv_draw/lv_draw_basic.o
                0x9d031298                lv_draw_px
                0x9d031424                lv_draw_fill
                0x9d031774                lv_draw_letter
                0x9d032054                lv_draw_map
 .text          0x9d0326dc     0x1574 build/default/production/lvgl/src/lv_objx/lv_roller.o
                0x9d032c6c                lv_roller_set_align
                0x9d032d54                lv_roller_set_visible_row_count
                0x9d032df0                lv_roller_set_style
                0x9d032e84                lv_roller_create
                0x9d0330c0                lv_roller_get_selected
                0x9d03316c                lv_roller_set_selected
                0x9d033480                lv_roller_set_options
                0x9d03362c                lv_roller_get_align
                0x9d0336d4                lv_roller_get_hor_fit
                0x9d03372c                lv_roller_get_style

.text           0x9d033c50     0x26bc
 .text          0x9d033c50     0x148c build/default/production/lvgl/src/lv_objx/lv_cont.o
                0x9d03410c                lv_cont_create
                0x9d0342c0                lv_cont_set_layout
                0x9d034344                lv_cont_set_fit4
                0x9d034438                lv_cont_get_layout
                0x9d034f8c                lv_cont_get_fit_left
                0x9d034fe0                lv_cont_get_fit_right
                0x9d035034                lv_cont_get_fit_top
                0x9d035088                lv_cont_get_fit_bottom
 .text          0x9d0350dc     0x1230 build/default/production/lvgl/src/lv_objx/lv_slider.o
                0x9d0350dc                lv_slider_set_knob_in
                0x9d035158                lv_slider_set_style
                0x9d035214                lv_slider_create
                0x9d0353dc                lv_slider_get_value
                0x9d035440                lv_slider_is_dragged
                0x9d03549c                lv_slider_get_knob_in
                0x9d0354f0                lv_slider_get_style

.text           0x9d03630c     0x22b0
 .text          0x9d03630c     0x1200 build/default/production/lvgl/src/lv_objx/lv_win.o
                0x9d03630c                lv_win_clean
                0x9d036360                lv_win_set_content_size
                0x9d0363e0                lv_win_set_layout
                0x9d03644c                lv_win_set_sb_mode
                0x9d0364b0                lv_win_set_drag
                0x9d036520                lv_win_get_title
                0x9d036574                lv_win_get_content
                0x9d0365c4                lv_win_set_anim_time
                0x9d036628                lv_win_get_btn_size
                0x9d036678                lv_win_get_from_btn
                0x9d0366cc                lv_win_close_event_cb
                0x9d036738                lv_win_get_layout
                0x9d036794                lv_win_get_sb_mode
                0x9d0367e8                lv_win_get_anim_time
                0x9d03683c                lv_win_get_width
                0x9d0368c4                lv_win_get_style
                0x9d036d58                lv_win_add_btn
                0x9d036e60                lv_win_set_title
                0x9d036ef4                lv_win_set_btn_size
                0x9d036f64                lv_win_set_style
                0x9d037104                lv_win_create
                0x9d037470                lv_win_focus
 .text          0x9d03750c     0x10b0 build/default/production/lvgl/src/lv_core/lv_group.o
                0x9d037c2c                lv_group_init
                0x9d037c50                lv_group_create
                0x9d037cf0                lv_group_del
                0x9d037d90                lv_group_remove_all_objs
                0x9d037e1c                lv_group_focus_next
                0x9d037e44                lv_group_focus_prev
                0x9d037edc                lv_group_add_obj
                0x9d037fd4                lv_group_remove_obj
                0x9d0380e4                lv_group_focus_freeze
                0x9d038108                lv_group_set_style_mod_cb
                0x9d038138                lv_group_set_style_mod_edit_cb
                0x9d038168                lv_group_set_focus_cb
                0x9d038170                lv_group_set_click_focus
                0x9d038180                lv_group_set_refocus_policy
                0x9d038190                lv_group_set_wrap
                0x9d0381a0                lv_group_mod_style
                0x9d038214                lv_group_get_focused
                0x9d038240                lv_group_send_data
                0x9d0382ac                lv_group_set_editing
                0x9d038334                lv_group_focus_obj
                0x9d038494                lv_group_get_style_mod_cb
                0x9d0384ac                lv_group_get_style_mod_edit_cb
                0x9d0384c4                lv_group_get_focus_cb
                0x9d0384dc                lv_group_get_editing
                0x9d0384f8                lv_group_get_click_focus
                0x9d038514                lv_group_get_wrap
                0x9d038530                lv_group_report_style_mod

.text           0x9d0385bc     0x2014
 .text          0x9d0385bc     0x1020 build/default/production/lvgl/src/lv_draw/lv_img_decoder.o
                0x9d0385bc                lv_img_decoder_built_in_info
                0x9d0386c8                lv_img_decoder_built_in_close
                0x9d038748                lv_img_decoder_built_in_open
                0x9d039078                lv_img_decoder_built_in_read_line
                0x9d0391c4                lv_img_decoder_get_info
                0x9d03928c                lv_img_decoder_open
                0x9d0393dc                lv_img_decoder_read_line
                0x9d039430                lv_img_decoder_close
                0x9d03948c                lv_img_decoder_create
                0x9d0394f8                lv_img_decoder_init
                0x9d039584                lv_img_decoder_delete
                0x9d0395bc                lv_img_decoder_set_info_cb
                0x9d0395c4                lv_img_decoder_set_open_cb
                0x9d0395cc                lv_img_decoder_set_read_line_cb
                0x9d0395d4                lv_img_decoder_set_close_cb
 .text          0x9d0395dc      0xff4 build/default/production/lvgl/src/lv_draw/lv_draw_img.o
                0x9d0395dc                lv_img_buf_get_px_alpha
                0x9d0397c8                lv_img_buf_set_palette
                0x9d0398bc                lv_img_color_format_get_px_size
                0x9d039950                lv_img_buf_get_px_color
                0x9d039b64                lv_img_buf_set_px_color
                0x9d039da0                lv_img_buf_set_px_alpha
                0x9d039f68                lv_img_color_format_is_chroma_keyed
                0x9d039f90                lv_img_color_format_has_alpha
                0x9d039fdc                lv_draw_img
                0x9d03a30c                lv_img_src_get_type
                0x9d03a348                lv_img_buf_free
                0x9d03a388                lv_img_buf_get_img_size
                0x9d03a4d4                lv_img_buf_alloc

.text           0x9d03a5d0     0x1f5c
 .text          0x9d03a5d0      0xfe8 build/default/production/lvgl/src/lv_core/lv_style.o
                0x9d03a60c                lv_style_copy
                0x9d03a668                lv_style_init
                0x9d03ad68                lv_style_mix
                0x9d03b3dc                lv_style_anim_init
                0x9d03b4a0                lv_style_anim_set_styles
 .text          0x9d03b5b8      0xf74 build/default/production/lvgl/src/lv_objx/lv_tileview.o
                0x9d03b618                lv_tileview_create
                0x9d03b88c                lv_tileview_set_tile_act
                0x9d03be1c                lv_tileview_add_element
                0x9d03becc                lv_tileview_set_valid_positions
                0x9d03bfb8                lv_tileview_set_style
                0x9d03c028                lv_tileview_get_style

.text           0x9d03c52c     0x1c10
 .text          0x9d03c52c      0xe7c build/default/production/lvgl/src/lv_objx/lv_mbox.o
                0x9d03c5a4                lv_mbox_set_anim_time
                0x9d03c5f4                lv_mbox_stop_auto_close
                0x9d03c644                lv_mbox_set_recolor
                0x9d03c6b0                lv_mbox_get_text
                0x9d03c704                lv_mbox_get_active_btn
                0x9d03c764                lv_mbox_get_active_btn_text
                0x9d03c7cc                lv_mbox_get_anim_time
                0x9d03c81c                lv_mbox_start_auto_close
                0x9d03c9c4                lv_mbox_get_style
                0x9d03cde4                lv_mbox_set_text
                0x9d03ce78                lv_mbox_set_style
                0x9d03cfc0                lv_mbox_create
                0x9d03d1b8                lv_mbox_add_btns
                0x9d03d2f0                lv_mbox_get_recolor
                0x9d03d358                lv_mbox_get_btnm
 .text          0x9d03d3a8      0xd94 build/default/production/lvgl/src/lv_objx/lv_gauge.o
                0x9d03db88                lv_gauge_set_needle_count
                0x9d03dca4                lv_gauge_set_value
                0x9d03dd88                lv_gauge_set_scale
                0x9d03de14                lv_gauge_create
                0x9d03e014                lv_gauge_get_value
                0x9d03e09c                lv_gauge_get_needle_count
                0x9d03e0ec                lv_gauge_get_label_count

.text           0x9d03e13c     0x1a4c
 .text          0x9d03e13c      0xd6c build/default/production/lvgl/src/lv_misc/lv_txt.o
                0x9d03e648                lv_txt_is_cmd
                0x9d03e6c4                lv_txt_get_next_line
                0x9d03eaa8                lv_txt_get_width
                0x9d03ebcc                lv_txt_get_size
                0x9d03ed58                lv_txt_ins
                0x9d03ee08                lv_txt_cut
 .text          0x9d03eea8      0xce0 build/default/production/lvgl/src/lv_objx/lv_bar.o
                0x9d03eee4                lv_bar_set_value
                0x9d03f06c                lv_bar_set_range
                0x9d03f148                lv_bar_set_sym
                0x9d03f1ac                lv_bar_set_anim_time
                0x9d03f208                lv_bar_set_style
                0x9d03f2a0                lv_bar_create
                0x9d03f4b4                lv_bar_get_value
                0x9d03f514                lv_bar_get_min_value
                0x9d03f564                lv_bar_get_max_value
                0x9d03f5b4                lv_bar_get_sym
                0x9d03f608                lv_bar_get_anim_time
                0x9d03f658                lv_bar_get_style

.text           0x9d03fb88     0x1900
 .text          0x9d03fb88      0xca8 build/default/production/lvgl/src/lv_objx/lv_kb.o
                0x9d03fca4                lv_kb_set_ta
                0x9d03fd8c                lv_kb_def_event_cb
                0x9d040128                lv_kb_set_mode
                0x9d040218                lv_kb_set_cursor_manage
                0x9d0402d4                lv_kb_set_style
                0x9d0403f4                lv_kb_create
                0x9d040634                lv_kb_get_ta
                0x9d040684                lv_kb_get_mode
                0x9d0406d4                lv_kb_get_cursor_manage
                0x9d040728                lv_kb_get_style
 .text          0x9d040830      0xc58 build/default/production/lvgl/src/lv_draw/lv_draw_triangle.o
                0x9d040830                tri_draw_flat
                0x9d040db4                tri_draw_tall
                0x9d041260                lv_draw_triangle
                0x9d0413cc                lv_draw_polygon

.text           0x9d041488     0x1864
 .text          0x9d041488      0xc4c build/default/production/lvgl/src/lv_objx/lv_btn.o
                0x9d0414e0                lv_btn_set_toggle
                0x9d041544                lv_btn_set_state
                0x9d0415c8                lv_btn_toggle
                0x9d041698                lv_btn_set_ink_in_time
                0x9d0416dc                lv_btn_set_ink_wait_time
                0x9d041720                lv_btn_set_ink_out_time
                0x9d041764                lv_btn_set_style
                0x9d041840                lv_btn_create
                0x9d041ac0                lv_btn_get_state
                0x9d041b14                lv_btn_get_toggle
                0x9d041eb8                lv_btn_get_ink_in_time
                0x9d041f00                lv_btn_get_ink_wait_time
                0x9d041f48                lv_btn_get_ink_out_time
                0x9d041f90                lv_btn_get_style
 .text          0x9d0420d4      0xc18 build/default/production/lvgl/src/lv_objx/lv_spinbox.o
                0x9d042368                lv_spinbox_set_value
                0x9d0423ec                lv_spinbox_set_digit_format
                0x9d042498                lv_spinbox_set_step
                0x9d0424f8                lv_spinbox_set_range
                0x9d0425b0                lv_spinbox_create
                0x9d0427b8                lv_spinbox_set_padding_left
                0x9d042824                lv_spinbox_get_value
                0x9d042874                lv_spinbox_step_next
                0x9d0428fc                lv_spinbox_step_prev
                0x9d042988                lv_spinbox_increment
                0x9d042a1c                lv_spinbox_decrement

.text           0x9d042cec     0x17fc
 .text          0x9d042cec      0xc14 build/default/production/lvgl/src/lv_misc/lv_fs.o
                0x9d042d34                lv_fs_init
                0x9d042d58                lv_fs_close
                0x9d042db8                lv_fs_read
                0x9d042e2c                lv_fs_write
                0x9d042ea0                lv_fs_seek
                0x9d042eec                lv_fs_tell
                0x9d042f38                lv_fs_trunc
                0x9d042f84                lv_fs_size
                0x9d042fdc                lv_fs_dir_read
                0x9d043028                lv_fs_dir_close
                0x9d043098                lv_fs_drv_init
                0x9d0430b8                lv_fs_drv_register
                0x9d043184                lv_fs_get_drv
                0x9d0431f8                lv_fs_is_ready
                0x9d043238                lv_fs_open
                0x9d043378                lv_fs_remove
                0x9d04340c                lv_fs_rename
                0x9d0434c8                lv_fs_dir_open
                0x9d043598                lv_fs_free_space
                0x9d043610                lv_fs_get_letters
                0x9d043698                lv_fs_get_ext
                0x9d043764                lv_fs_up
                0x9d04382c                lv_fs_get_last
 .text          0x9d043900      0xbe8 build/default/production/lvgl/src/lv_core/lv_refr.o
                0x9d043d8c                lv_refr_init
                0x9d043d94                lv_inv_area
                0x9d043ef8                lv_refr_get_disp_refreshing
                0x9d043f00                lv_refr_set_disp_refreshing
                0x9d043f08                lv_disp_refr_task
                0x9d044490                lv_refr_now

.text           0x9d0444e8     0x14dc
 .text          0x9d0444e8      0xa78 build/default/production/lvgl/src/lv_objx/lv_img.o
                0x9d044774                lv_img_set_auto_size
                0x9d0447d8                lv_img_set_offset_x
                0x9d044850                lv_img_set_offset_y
                0x9d0448c8                lv_img_get_src
                0x9d044918                lv_img_get_file_name
                0x9d044984                lv_img_get_auto_size
                0x9d0449d8                lv_img_set_src
                0x9d044c08                lv_img_create
                0x9d044ec0                lv_img_get_offset_x
                0x9d044f10                lv_img_get_offset_y
 .text          0x9d044f60      0xa64 build/default/production/lvgl/src/lv_draw/lv_draw_line.o
                0x9d0450ac                lv_draw_line

.text           0x9d0459c4     0x1400
 .text          0x9d0459c4      0xa08 build/default/production/lvgl/src/lv_objx/lv_preload.o
                0x9d0459c4                lv_preload_set_arc_length
                0x9d045c40                lv_preload_spinner_anim
                0x9d045d10                lv_preload_set_style
                0x9d045d84                lv_preload_set_type
                0x9d045fb8                lv_preload_create
                0x9d046168                lv_preload_set_spin_time
                0x9d0461d4                lv_preload_set_dir
                0x9d046248                lv_preload_get_arc_length
                0x9d046298                lv_preload_get_spin_time
                0x9d0462e8                lv_preload_get_style
                0x9d046354                lv_preload_get_type
                0x9d0463a8                lv_preload_get_dir
 .text          0x9d0463cc      0x9f8 build/default/production/lvgl/src/lv_objx/lv_lmeter.o
                0x9d046840                lv_lmeter_create
                0x9d0469cc                lv_lmeter_set_value
                0x9d046a6c                lv_lmeter_set_range
                0x9d046b40                lv_lmeter_set_scale
                0x9d046bcc                lv_lmeter_set_angle_offset
                0x9d046c14                lv_lmeter_get_value
                0x9d046c64                lv_lmeter_get_min_value
                0x9d046cb4                lv_lmeter_get_max_value
                0x9d046d04                lv_lmeter_get_line_count
                0x9d046d54                lv_lmeter_get_scale_angle
                0x9d046da4                lv_lmeter_get_angle_offset

.text           0x9d046dc4     0x13a4
 .text          0x9d046dc4      0x9f0 build/default/production/lvgl/src/lv_font/lv_font_fmt_txt.o
                0x9d04730c                lv_font_get_bitmap_fmt_txt
                0x9d0475ac                lv_font_get_glyph_dsc_fmt_txt
 .text          0x9d0477b4      0x9b4 build/default/production/lvgl/src/lv_objx/lv_sw.o
                0x9d0477b4                lv_sw_on
                0x9d047838                lv_sw_off
                0x9d047c94                lv_sw_toggle
                0x9d047d20                lv_sw_set_style
                0x9d047e30                lv_sw_create
                0x9d048010                lv_sw_set_anim_time
                0x9d04806c                lv_sw_get_style
                0x9d048118                lv_sw_get_anim_time

.text           0x9d048168     0x126c
 .text          0x9d048168      0x954 build/default/production/lvgl/src/lv_misc/lv_anim.o
                0x9d048168                lv_anim_path_linear
                0x9d048400                lv_anim_core_init
                0x9d048448                lv_anim_init
                0x9d048490                lv_anim_del
                0x9d048564                lv_anim_create
                0x9d04866c                lv_anim_count_running
                0x9d0486d4                lv_anim_speed_to_time
                0x9d048724                lv_anim_path_ease_in
                0x9d04879c                lv_anim_path_ease_out
                0x9d048814                lv_anim_path_ease_in_out
                0x9d04888c                lv_anim_path_overshoot
                0x9d048904                lv_anim_path_bounce
                0x9d048a98                lv_anim_path_step
 .text          0x9d048abc      0x918 build/default/production/lvgl/src/lv_objx/lv_cb.o
                0x9d048db0                lv_cb_set_text
                0x9d048e14                lv_cb_set_static_text
                0x9d048e78                lv_cb_set_style
                0x9d048fe0                lv_cb_create
                0x9d049270                lv_cb_get_text
                0x9d0492c4                lv_cb_get_style

.text           0x9d0493d4     0x1074
 .text          0x9d0493d4      0x8c0 build/default/production/lvgl/src/lv_draw/lv_draw_label.o
                0x9d049484                lv_draw_label
 .text          0x9d049c94      0x7b4 build/default/production/lvgl/src/lv_objx/lv_line.o
                0x9d049ff8                lv_line_set_points
                0x9d04a104                lv_line_set_auto_size
                0x9d04a18c                lv_line_set_y_invert
                0x9d04a208                lv_line_get_auto_size
                0x9d04a25c                lv_line_get_y_invert
                0x9d04a2b0                lv_line_create

.text           0x9d04a448      0xd58
 .text          0x9d04a448      0x6ac build/default/production/lvgl/src/lv_draw/lv_draw_arc.o
                0x9d04a4d8                lv_draw_arc
 .text          0x9d04aaf4      0x6ac build/default/production/lvgl/src/lv_misc/lv_task.o
                0x9d04aaf4                lv_task_core_init
                0x9d04ab20                lv_task_create_basic
                0x9d04acac                lv_task_set_cb
                0x9d04acb4                lv_task_del
                0x9d04ad88                lv_task_handler
                0x9d04af7c                lv_task_set_prio
                0x9d04b07c                lv_task_create
                0x9d04b118                lv_task_set_period
                0x9d04b120                lv_task_ready
                0x9d04b154                lv_task_once
                0x9d04b168                lv_task_reset
                0x9d04b190                lv_task_enable
                0x9d04b198                lv_task_get_idle

.text           0x9d04b1a0      0xd24
 .text          0x9d04b1a0      0x69c build/default/production/lvgl/src/lv_misc/lv_ll.o
                0x9d04b220                lv_ll_init
                0x9d04b240                lv_ll_ins_head
                0x9d04b2c4                lv_ll_ins_tail
                0x9d04b350                lv_ll_get_head
                0x9d04b368                lv_ll_get_tail
                0x9d04b380                lv_ll_get_next
                0x9d04b3b0                lv_ll_get_prev
                0x9d04b3dc                lv_ll_ins_prev
                0x9d04b4b4                lv_ll_rem
                0x9d04b5b8                lv_ll_clear
                0x9d04b624                lv_ll_chg_list
                0x9d04b6f4                lv_ll_get_len
                0x9d04b750                lv_ll_move_before
                0x9d04b814                lv_ll_is_empty
 .text          0x9d04b83c      0x688 build/default/production/lvgl/src/lv_objx/lv_arc.o
                0x9d04b89c                lv_arc_set_angles
                0x9d04b930                lv_arc_set_style
                0x9d04b9a0                lv_arc_create
                0x9d04bb18                lv_arc_get_angle_start
                0x9d04bb68                lv_arc_get_angle_end
                0x9d04bbb8                lv_arc_get_style

.text           0x9d04bec4      0xc1c
 .text          0x9d04bec4      0x624 build/default/production/RA8875.o
                0x9d04bec4                writeData
                0x9d04beec                readData
                0x9d04bf20                writeCommand
                0x9d04bf4c                RA8875_fillScreen
                0x9d04c054                writeReg
                0x9d04c080                RA8875_PLLinit
                0x9d04c0bc                RA8875_begin
                0x9d04c280                RA8875_displayOn
                0x9d04c2bc                RA8875_backlight
                0x9d04c328                RA8875_drawPixel
                0x9d04c3bc                readReg
                0x9d04c3e0                RA8875_drawPixels
                0x9d04c4b4                readStatus
 .text          0x9d04c4e8      0x5f8 build/default/production/lvgl/src/lv_objx/lv_imgbtn.o
                0x9d04c66c                lv_imgbtn_create
                0x9d04c7f8                lv_imgbtn_set_src
                0x9d04c874                lv_imgbtn_set_style
                0x9d04c8e0                lv_imgbtn_get_src
                0x9d04c948                lv_imgbtn_get_style

.dinit          0x9d04cae0      0x5e0
 .dinit         0x9d04cae0      0x5e0 data_init

.text           0x9d04d0c0      0xb58
 .text          0x9d04d0c0      0x5ac build/default/production/lvgl/src/lv_hal/lv_hal_disp.o
                0x9d04d0c0                lv_disp_drv_init
                0x9d04d10c                lv_disp_buf_init
                0x9d04d16c                lv_disp_drv_register
                0x9d04d354                lv_disp_remove
                0x9d04d3dc                lv_disp_set_default
                0x9d04d3e4                lv_disp_get_default
                0x9d04d3ec                lv_disp_get_hor_res
                0x9d04d420                lv_disp_get_ver_res
                0x9d04d454                lv_disp_drv_update
                0x9d04d550                lv_disp_get_antialiasing
                0x9d04d558                lv_disp_flush_ready
                0x9d04d570                lv_disp_get_next
                0x9d04d5ac                lv_disp_get_buf
                0x9d04d5b4                lv_disp_get_inv_buf_size
                0x9d04d5c0                lv_disp_pop_from_inv_buf
                0x9d04d5f4                lv_disp_is_double_buf
                0x9d04d618                lv_disp_is_true_double_buf
 .text          0x9d04d66c      0x5ac build/default/production/lvgl/src/lv_objx/lv_led.o
                0x9d04d8e0                lv_led_create
                0x9d04da48                lv_led_set_bright
                0x9d04dab8                lv_led_on
                0x9d04db08                lv_led_off
                0x9d04db58                lv_led_get_bright
                0x9d04dba8                lv_led_toggle

.text           0x9d04dc18      0x96c
 .text          0x9d04dc18      0x508 build/default/production/lvgl/src/lv_misc/lv_mem.o
                0x9d04dcb4                lv_mem_init
                0x9d04dcd8                lv_mem_deinit
                0x9d04dd18                lv_mem_alloc
                0x9d04ddc8                lv_mem_free
                0x9d04de68                lv_mem_defrag
                0x9d04df20                lv_mem_monitor
                0x9d04e020                lv_mem_get_size
                0x9d04e050                lv_mem_realloc
 .text          0x9d04e120      0x464 d:/programas/microchip/xc32/v2.10/bin/bin/../../lib/gcc/pic32mx/4.8.3\libgcc.a(_umoddi3.o)
                0x9d04e120                __umoddi3

.text           0x9d04e584      0x874
 .text          0x9d04e584      0x458 d:/programas/microchip/xc32/v2.10/bin/bin/../../lib/gcc/pic32mx/4.8.3\libgcc.a(_udivdi3.o)
                0x9d04e584                __udivdi3
 .text          0x9d04e9dc      0x41c build/default/production/lvgl/src/lv_misc/lv_color.o
                0x9d04e9dc                lv_color_hsv_to_rgb
                0x9d04eb94                lv_color_rgb_to_hsv
                0x9d04ed58                lv_color_to_hsv

.text           0x9d04edf8      0x7a0
 .text          0x9d04edf8      0x3f8 build/default/production/lvgl/src/lv_draw/lv_img_cache.o
                0x9d04edf8                lv_img_cache_open
                0x9d04f054                lv_img_cache_invalidate_src
                0x9d04f108                lv_img_cache_set_size
 .text          0x9d04f1f0      0x3a8 build/default/production/main.o
                0x9d04f1f0                timer1_config
                0x9d04f260                T1ISR
                0x9d04f3b0                my_disp_flush
                0x9d04f464                spi2_config
                0x9d04f528                main

.text           0x9d04f598      0x618
 .text          0x9d04f598      0x320 build/default/production/lvgl/src/lv_misc/lv_math.o
                0x9d04f598                lv_trigo_sin
                0x9d04f69c                lv_bezier3
                0x9d04f710                lv_atan2
                0x9d04f858                lv_sqrt
 .text          0x9d04f8b8      0x2f8 build/default/production/lvgl/src/lv_misc/lv_area.o
                0x9d04f8b8                lv_area_set
                0x9d04f8d0                lv_area_set_width
                0x9d04f8e4                lv_area_set_height
                0x9d04f8f8                lv_area_set_pos
                0x9d04f92c                lv_area_get_size
                0x9d04f954                lv_area_intersect
                0x9d04fa00                lv_area_join
                0x9d04fa84                lv_area_is_point_on
                0x9d04fad0                lv_area_is_on
                0x9d04fb24                lv_area_is_in
                0x9d04fb78                lv_area_increment

.text           0x9d04fbb0      0x2dc
 .text          0x9d04fbb0      0x2dc build/default/production/lvgl/src/lv_core/lv_debug.o
                0x9d04fc50                lv_debug_check_null
                0x9d04fc58                lv_debug_check_obj_type
                0x9d04fccc                lv_debug_check_obj_valid
                0x9d04fd94                lv_debug_check_style
                0x9d04fdbc                lv_debug_check_str
                0x9d04fe4c                lv_debug_log_error

.rodata         0x9d04fe8c      0x2dc
 .rodata        0x9d04fe8c      0x2dc build/default/production/lvgl/src/lv_objx/lv_kb.o

.text           0x9d050168      0x2d4
 .text          0x9d050168      0x2d4 build/default/production/lvgl/src/lv_hal/lv_hal_indev.o
                0x9d050168                lv_indev_drv_init
                0x9d0501b4                lv_indev_drv_register
                0x9d0502fc                lv_indev_drv_update
                0x9d050370                lv_indev_get_next
                0x9d0503ac                lv_indev_read

.text.fpsubadd  0x9d05043c      0x278
 .text.fpsubadd
                0x9d05043c      0x278 d:/programas/microchip/xc32/v2.10/bin/bin/../../lib/gcc/pic32mx/4.8.3/../../../../pic32mx/lib\libm.a(fp32subadd.o)
                0x9d05043c                __subsf3
                0x9d05043c                fpsub
                0x9d050444                __addsf3
                0x9d050444                fpadd

.text           0x9d0506b4      0x234
 .text          0x9d0506b4      0x234 build/default/production/uart.o
                0x9d0506b4                uart1_config
                0x9d05088c                uart1_putc
                0x9d0508ac                uart1_puts

.text.fp32div   0x9d0508e8      0x230
 .text.fp32div  0x9d0508e8      0x230 d:/programas/microchip/xc32/v2.10/bin/bin/../../lib/gcc/pic32mx/4.8.3/../../../../pic32mx/lib\libm.a(fp32div.o)
                0x9d0508e8                fpdiv
                0x9d0508e8                __divsf3

.text           0x9d050b18      0x1e8
 .text          0x9d050b18      0x1e8 build/default/production/lvgl/src/lv_core/lv_disp.o
                0x9d050b18                lv_disp_get_scr_act
                0x9d050b50                lv_disp_load_scr
                0x9d050b80                lv_disp_get_layer_top
                0x9d050bb8                lv_disp_get_layer_sys
                0x9d050bf0                lv_disp_assign_screen
                0x9d050c4c                lv_disp_get_refr_task
                0x9d050c84                lv_disp_get_inactive_time
                0x9d050cc0                lv_disp_trig_activity

.text.fp32mul   0x9d050d00      0x1bc
 .text.fp32mul  0x9d050d00      0x1bc d:/programas/microchip/xc32/v2.10/bin/bin/../../lib/gcc/pic32mx/4.8.3/../../../../pic32mx/lib\libm.a(fp32mul.o)
                0x9d050d00                __mulsf3
                0x9d050d00                fpmul

.text           0x9d050ebc      0x348
 .text          0x9d050ebc      0x1a8 build/default/production/lvgl/src/lv_misc/lv_utils.o
                0x9d050ebc                lv_utils_num_to_str
                0x9d050fac                lv_utils_bsearch
 .text          0x9d051064      0x1a0 d:/programas/microchip/xc32/v2.10/bin/bin/../../lib/gcc/pic32mx/4.8.3/../../../../pic32mx/lib\libpic32.a(strcpy.o)
                0x9d051064                strcpy

.text           0x9d051204      0x2d0
 .text          0x9d051204      0x168 d:/programas/microchip/xc32/v2.10/bin/bin/../../lib/gcc/pic32mx/4.8.3/../../../../pic32mx/lib\libpic32.a(memcpy.o)
                0x9d051204                memcpy
 .text          0x9d05136c      0x168 d:/programas/microchip/xc32/v2.10/bin/bin/../../lib/gcc/pic32mx/4.8.3/../../../../pic32mx/lib\libpic32.a(strlen.o)
                0x9d05136c                strlen

.text           0x9d0514d4      0x120
 .text          0x9d0514d4      0x120 d:/programas/microchip/xc32/v2.10/bin/bin/../../lib/gcc/pic32mx/4.8.3/../../../../pic32mx/lib\libpic32.a(strcmp.o)
                0x9d0514d4                strcmp

.rodata         0x9d0515f4      0x108
 .rodata        0x9d0515f4      0x108 build/default/production/lvgl/src/lv_objx/lv_calendar.o

.text.strncpy   0x9d0516fc      0x100
 .text.strncpy  0x9d0516fc      0x100 d:/programas/microchip/xc32/v2.10/bin/bin/../../lib/gcc/pic32mx/4.8.3/../../../../pic32mx/lib\liblega-c.a(strncpy.o)
                0x9d0516fc                strncpy

.text           0x9d0517fc       0xdc
 .text          0x9d0517fc       0xdc build/default/production/lvgl/src/lv_draw/lv_draw.o
                0x9d0517fc                lv_draw_get_buf
                0x9d0518a8                lv_draw_free_buf

.text.general_exception
                0x9d0518d8       0xdc
 .text.general_exception
                0x9d0518d8       0xdc d:/programas/microchip/xc32/v2.10/bin/bin/../../lib/gcc/pic32mx/4.8.3/../../../../pic32mx/lib\libpic32.a(general-exception.o)
                0x9d0518d8                _general_exception_context

.text           0x9d0519b4       0xc4
 .text          0x9d0519b4       0xc4 build/default/production/lvgl/src/lv_misc/lv_async.o
                0x9d0519e8                lv_async_call

.rodata         0x9d051a78       0xb8
 .rodata        0x9d051a78       0xb8 build/default/production/lvgl/src/lv_misc/lv_math.o

.text           0x9d051b30      0x158
 .text          0x9d051b30       0xb0 build/default/production/lvgl/src/lv_misc/lv_gc.o
                0x9d051b30                lv_gc_clear_roots
 .text          0x9d051be0       0xa8 d:/programas/microchip/xc32/v2.10/bin/bin/../../lib/gcc/pic32mx/4.8.3/../../../../pic32mx/lib\libpic32.a(memset.o)
                0x9d051be0                memset

.text.fpcmp     0x9d051c88       0x9c
 .text.fpcmp    0x9d051c88       0x9c d:/programas/microchip/xc32/v2.10/bin/bin/../../lib/gcc/pic32mx/4.8.3/../../../../pic32mx/lib\libm.a(fpcmp.o)
                0x9d051c88                __eqsf2
                0x9d051c88                __lesf2
                0x9d051c88                __gtsf2
                0x9d051c88                __nesf2
                0x9d051c88                fpcmp
                0x9d051c88                __gesf2
                0x9d051c88                __ltsf2

.rodata         0x9d051d24       0x8c
 .rodata        0x9d051d24       0x8c build/default/production/lvgl/src/lv_misc/lv_printf.o

.text           0x9d051db0      0x108
 .text          0x9d051db0       0x84 build/default/production/lvgl/src/lv_misc/lv_circ.o
                0x9d051db0                lv_circ_init
                0x9d051dc8                lv_circ_cont
                0x9d051ddc                lv_circ_next
 .text          0x9d051e34       0x84 d:/programas/microchip/xc32/v2.10/bin/bin/../../lib/gcc/pic32mx/4.8.3/../../../../pic32mx/lib\libpic32.a(pic32_data_init.o)
                0x9d051e34                __pic32_data_init

.text.fptoli    0x9d051eb8       0x80
 .text.fptoli   0x9d051eb8       0x80 d:/programas/microchip/xc32/v2.10/bin/bin/../../lib/gcc/pic32mx/4.8.3/../../../../pic32mx/lib\libm.a(fptoli.o)
                0x9d051eb8                fptoli
                0x9d051eb8                fptosi
                0x9d051eb8                __fixsfsi

.text           0x9d051f38       0x7c
 .text          0x9d051f38       0x7c build/default/production/delay.o
                0x9d051f38                delay_us
                0x9d051f7c                delay_ms

.text.fptoul    0x9d051fb4       0x7c
 .text.fptoul   0x9d051fb4       0x7c d:/programas/microchip/xc32/v2.10/bin/bin/../../lib/gcc/pic32mx/4.8.3/../../../../pic32mx/lib\libm.a(fptoul.o)
                0x9d051fb4                fptoul
                0x9d051fb4                fptoui
                0x9d051fb4                __fixunssfsi

.text           0x9d052030       0xd4
 .text          0x9d052030       0x74 build/default/production/lvgl/src/lv_font/lv_font.o
                0x9d052030                lv_font_get_glyph_bitmap
                0x9d052050                lv_font_get_glyph_dsc
                0x9d052070                lv_font_get_glyph_width
 .text          0x9d0520a4       0x60 build/default/production/lvgl/src/lv_hal/lv_hal_tick.o
                0x9d0520a4                lv_tick_inc
                0x9d0520b8                lv_tick_get
                0x9d0520dc                lv_tick_elaps

.text.sitofp    0x9d052104       0x60
 .text.sitofp   0x9d052104       0x60 d:/programas/microchip/xc32/v2.10/bin/bin/../../lib/gcc/pic32mx/4.8.3/../../../../pic32mx/lib\libm.a(sitofp.o)
                0x9d052104                sitofp
                0x9d052104                litofp
                0x9d052104                __floatsisf

.rodata         0x9d052164       0x58
 .rodata        0x9d052164       0x58 build/default/production/lvgl/src/lv_objx/lv_btnm.o

.text.main_entry
                0x9d0521bc       0x54
 .text.main_entry
                0x9d0521bc       0x54 d:/programas/microchip/xc32/v2.10/bin/bin/../../lib/gcc/pic32mx/4.8.3/../../../../pic32mx/lib/./proc/32MX795F512H/crt0_mips32r2.o
                0x9d0521f0                __crt0_exit

.rodata         0x9d052210       0x50
 .rodata        0x9d052210       0x50 build/default/production/lvgl/src/lv_objx/lv_ddlist.o

.text           0x9d052260       0x4c
 .text          0x9d052260       0x4c d:/programas/microchip/xc32/v2.10/bin/bin/../../lib/gcc/pic32mx/4.8.3\libgcc.a(floatunsisf.o)
                0x9d052260                __floatunsisf

.rodata         0x9d0522ac       0x48
 .rodata        0x9d0522ac       0x48 build/default/production/lvgl/src/lv_objx/lv_list.o

.text._bootstrap_exception_handler
                0x9d0522f4       0x48
 .text._bootstrap_exception_handler
                0x9d0522f4       0x48 d:/programas/microchip/xc32/v2.10/bin/bin/../../lib/gcc/pic32mx/4.8.3/../../../../pic32mx/lib\libpic32.a(default-bootstrap-exception-handler.o)
                0x9d0522f4                _bootstrap_exception_handler

.text._general_exception_handler
                0x9d05233c       0x48
 .text._general_exception_handler
                0x9d05233c       0x48 d:/programas/microchip/xc32/v2.10/bin/bin/../../lib/gcc/pic32mx/4.8.3/../../../../pic32mx/lib\libpic32.a(default-general-exception-handler.o)
                0x9d05233c                _general_exception_handler

.vector_default
                0x9d052384       0x48
 .vector_default
                0x9d052384       0x48 d:/programas/microchip/xc32/v2.10/bin/bin/../../lib/gcc/pic32mx/4.8.3/../../../../pic32mx/lib\libpic32.a(defaultinterrupt.o)
                0x9d052384                _DefaultInterrupt

.text           0x9d0523cc       0x44
 .text          0x9d0523cc       0x44 d:/programas/microchip/xc32/v2.10/bin/bin/../../lib/gcc/pic32mx/4.8.3/../../../../pic32mx/lib\pic32_software_reset.o
                0x9d0523cc                __pic32_software_reset

.rodata         0x9d052410       0x70
 .rodata        0x9d052410       0x38 build/default/production/lvgl/src/lv_core/lv_obj.o
 .rodata        0x9d052448       0x38 build/default/production/lvgl/src/lv_objx/lv_ta.o

.rodata         0x9d052480       0x68
 .rodata        0x9d052480       0x34 build/default/production/lvgl/src/lv_objx/lv_cb.o
 .rodata        0x9d0524b4       0x34 build/default/production/lvgl/src/lv_objx/lv_label.o

.rodata         0x9d0524e8       0x68
 .rodata        0x9d0524e8       0x34 build/default/production/lvgl/src/lv_objx/lv_tabview.o
 .rodata        0x9d05251c       0x34 build/default/production/lvgl/src/lv_objx/lv_win.o

.rodata         0x9d052550       0x60
 .rodata        0x9d052550       0x30 build/default/production/lvgl/src/lv_objx/lv_cpicker.o
 .rodata        0x9d052580       0x30 build/default/production/lvgl/src/lv_objx/lv_mbox.o

.rodata         0x9d0525b0       0x60
 .rodata        0x9d0525b0       0x30 build/default/production/lvgl/src/lv_objx/lv_preload.o
 .rodata        0x9d0525e0       0x30 build/default/production/lvgl/src/lv_objx/lv_table.o

.rodata         0x9d052610       0x30
 .rodata        0x9d052610       0x30 build/default/production/lvgl/src/lv_objx/lv_tileview.o

.text           0x9d052640       0x30
 .text          0x9d052640       0x30 build/default/production/lvgl/src/lv_themes/lv_theme.o
                0x9d052640                lv_theme_set_current
                0x9d052668                lv_theme_get_current

.rodata         0x9d052670       0x58
 .rodata        0x9d052670       0x2c build/default/production/lvgl/src/lv_objx/lv_canvas.o
 .rodata        0x9d05269c       0x2c build/default/production/lvgl/src/lv_objx/lv_chart.o

.rodata         0x9d0526c8       0x58
 .rodata        0x9d0526c8       0x2c build/default/production/lvgl/src/lv_objx/lv_gauge.o
 .rodata        0x9d0526f4       0x2c build/default/production/lvgl/src/lv_objx/lv_img.o

.rodata         0x9d052720       0x58
 .rodata        0x9d052720       0x2c build/default/production/lvgl/src/lv_objx/lv_imgbtn.o
 .rodata        0x9d05274c       0x2c build/default/production/lvgl/src/lv_objx/lv_lmeter.o

.rodata         0x9d052778       0x58
 .rodata        0x9d052778       0x2c build/default/production/lvgl/src/lv_objx/lv_page.o
 .rodata        0x9d0527a4       0x2c build/default/production/lvgl/src/lv_objx/lv_roller.o

.rodata         0x9d0527d0       0x58
 .rodata        0x9d0527d0       0x2c build/default/production/lvgl/src/lv_objx/lv_slider.o
 .rodata        0x9d0527fc       0x2c build/default/production/lvgl/src/lv_objx/lv_spinbox.o

.rodata         0x9d052828       0x50
 .rodata        0x9d052828       0x28 build/default/production/lvgl/src/lv_draw/lv_img_decoder.o
 .rodata        0x9d052850       0x28 build/default/production/lvgl/src/lv_objx/lv_arc.o

.rodata         0x9d052878       0x50
 .rodata        0x9d052878       0x28 build/default/production/lvgl/src/lv_objx/lv_bar.o
 .rodata        0x9d0528a0       0x28 build/default/production/lvgl/src/lv_objx/lv_btn.o

.rodata         0x9d0528c8       0x50
 .rodata        0x9d0528c8       0x28 build/default/production/lvgl/src/lv_objx/lv_cont.o
 .rodata        0x9d0528f0       0x28 build/default/production/lvgl/src/lv_objx/lv_led.o

.rodata         0x9d052918       0x50
 .rodata        0x9d052918       0x28 build/default/production/lvgl/src/lv_objx/lv_line.o
 .rodata        0x9d052940       0x28 build/default/production/lvgl/src/lv_objx/lv_sw.o

.rodata         0x9d052968       0x38
 .rodata        0x9d052968       0x1c build/default/production/lvgl/src/lv_core/lv_style.o
 .rodata        0x9d052984       0x1c build/default/production/lvgl/src/lv_draw/lv_draw_img.o

.text           0x9d0529a0       0x18
 .text          0x9d0529a0       0x18 d:/programas/microchip/xc32/v2.10/bin/bin/../../lib/gcc/pic32mx/4.8.3/../../../../pic32mx/lib\libpic32.a(default-nmi-handler.o)
                0x9d0529a0                _nmi_handler

.rodata         0x9d0529b8       0x28
 .rodata        0x9d0529b8       0x14 build/default/production/lvgl/src/lv_draw/lv_draw_basic.o
 .rodata        0x9d0529cc       0x14 build/default/production/lvgl/src/lv_misc/lv_fs.o

.rodata         0x9d0529e0       0x20
 .rodata        0x9d0529e0       0x10 build/default/production/lvgl/src/lv_core/lv_group.o
 .rodata        0x9d0529f0       0x10 build/default/production/lvgl/src/lv_draw/lv_draw.o

.rodata         0x9d052a00       0x20
 .rodata        0x9d052a00       0x10 build/default/production/lvgl/src/lv_draw/lv_img_cache.o
 .rodata        0x9d052a10       0x10 build/default/production/lvgl/src/lv_font/lv_font_fmt_txt.o

.rodata         0x9d052a20       0x20
 .rodata        0x9d052a20       0x10 build/default/production/lvgl/src/lv_hal/lv_hal_disp.o
 .rodata        0x9d052a30       0x10 build/default/production/lvgl/src/lv_hal/lv_hal_indev.o

.rodata         0x9d052a40       0x20
 .rodata        0x9d052a40       0x10 build/default/production/lvgl/src/lv_misc/lv_anim.o
 .rodata        0x9d052a50       0x10 build/default/production/lvgl/src/lv_misc/lv_task.o

.rodata         0x9d052a60        0x8
 .rodata        0x9d052a60        0x8 build/default/production/lvgl/src/lv_misc/lv_txt.o

.text._on_reset
                0x9d052a68        0x8
 .text._on_reset
                0x9d052a68        0x8 d:/programas/microchip/xc32/v2.10/bin/bin/../../lib/gcc/pic32mx/4.8.3/../../../../pic32mx/lib\libpic32.a(default-on-reset.o)
                0x9d052a68                _on_reset

.text._on_bootstrap
                0x9d052a70        0x8
 .text._on_bootstrap
                0x9d052a70        0x8 d:/programas/microchip/xc32/v2.10/bin/bin/../../lib/gcc/pic32mx/4.8.3/../../../../pic32mx/lib\libpic32.a(default-on-bootstrap.o)
                0x9d052a70                _on_bootstrap

.text%z344      0x00000000        0x0
 .text          0x00000000        0x0 d:/programas/microchip/xc32/v2.10/bin/bin/../../lib/gcc/pic32mx/4.8.3/../../../../pic32mx/lib\libm.a(sitofp.o)

.text%z345      0x00000000        0x0
 .text          0x00000000        0x0 d:/programas/microchip/xc32/v2.10/bin/bin/../../lib/gcc/pic32mx/4.8.3/../../../../pic32mx/lib\libm.a(fptoul.o)

.text%z346      0x00000000        0x0
 .text          0x00000000        0x0 d:/programas/microchip/xc32/v2.10/bin/bin/../../lib/gcc/pic32mx/4.8.3/../../../../pic32mx/lib\libm.a(fptoli.o)

.text%z347      0x00000000        0x0
 .text          0x00000000        0x0 d:/programas/microchip/xc32/v2.10/bin/bin/../../lib/gcc/pic32mx/4.8.3/../../../../pic32mx/lib\libm.a(fpcmp.o)

.text%z348      0x00000000        0x0
 .text          0x00000000        0x0 d:/programas/microchip/xc32/v2.10/bin/bin/../../lib/gcc/pic32mx/4.8.3/../../../../pic32mx/lib\libm.a(fp32subadd.o)

.text%z349      0x00000000        0x0
 .text          0x00000000        0x0 d:/programas/microchip/xc32/v2.10/bin/bin/../../lib/gcc/pic32mx/4.8.3/../../../../pic32mx/lib\libm.a(fp32mul.o)

.text%z350      0x00000000        0x0
 .text          0x00000000        0x0 d:/programas/microchip/xc32/v2.10/bin/bin/../../lib/gcc/pic32mx/4.8.3/../../../../pic32mx/lib\libm.a(fp32div.o)

.text%z351      0x00000000        0x0
 .text          0x00000000        0x0 d:/programas/microchip/xc32/v2.10/bin/bin/../../lib/gcc/pic32mx/4.8.3/../../../../pic32mx/lib\liblega-c.a(strncpy.o)

.text%z352      0x00000000        0x0
 .text          0x00000000        0x0 d:/programas/microchip/xc32/v2.10/bin/bin/../../lib/gcc/pic32mx/4.8.3/../../../../pic32mx/lib\libpic32.a(defaultinterrupt.o)

.text%z353      0x00000000        0x0
 .text          0x00000000        0x0 d:/programas/microchip/xc32/v2.10/bin/bin/../../lib/gcc/pic32mx/4.8.3/../../../../pic32mx/lib\libpic32.a(default-general-exception-handler.o)

.text%z354      0x00000000        0x0
 .text          0x00000000        0x0 d:/programas/microchip/xc32/v2.10/bin/bin/../../lib/gcc/pic32mx/4.8.3/../../../../pic32mx/lib\libpic32.a(vector51.o)

.text%z355      0x00000000        0x0
 .text          0x00000000        0x0 d:/programas/microchip/xc32/v2.10/bin/bin/../../lib/gcc/pic32mx/4.8.3/../../../../pic32mx/lib\libpic32.a(vector50.o)

.text%z356      0x00000000        0x0
 .text          0x00000000        0x0 d:/programas/microchip/xc32/v2.10/bin/bin/../../lib/gcc/pic32mx/4.8.3/../../../../pic32mx/lib\libpic32.a(vector49.o)

.text%z357      0x00000000        0x0
 .text          0x00000000        0x0 d:/programas/microchip/xc32/v2.10/bin/bin/../../lib/gcc/pic32mx/4.8.3/../../../../pic32mx/lib\libpic32.a(vector48.o)

.text%z358      0x00000000        0x0
 .text          0x00000000        0x0 d:/programas/microchip/xc32/v2.10/bin/bin/../../lib/gcc/pic32mx/4.8.3/../../../../pic32mx/lib\libpic32.a(vector47.o)

.text%z359      0x00000000        0x0
 .text          0x00000000        0x0 d:/programas/microchip/xc32/v2.10/bin/bin/../../lib/gcc/pic32mx/4.8.3/../../../../pic32mx/lib\libpic32.a(vector46.o)

.text%z360      0x00000000        0x0
 .text          0x00000000        0x0 d:/programas/microchip/xc32/v2.10/bin/bin/../../lib/gcc/pic32mx/4.8.3/../../../../pic32mx/lib\libpic32.a(vector45.o)

.text%z361      0x00000000        0x0
 .text          0x00000000        0x0 d:/programas/microchip/xc32/v2.10/bin/bin/../../lib/gcc/pic32mx/4.8.3/../../../../pic32mx/lib\libpic32.a(vector44.o)

.text%z362      0x00000000        0x0
 .text          0x00000000        0x0 d:/programas/microchip/xc32/v2.10/bin/bin/../../lib/gcc/pic32mx/4.8.3/../../../../pic32mx/lib\libpic32.a(vector43.o)

.text%z363      0x00000000        0x0
 .text          0x00000000        0x0 d:/programas/microchip/xc32/v2.10/bin/bin/../../lib/gcc/pic32mx/4.8.3/../../../../pic32mx/lib\libpic32.a(vector42.o)

.text%z364      0x00000000        0x0
 .text          0x00000000        0x0 d:/programas/microchip/xc32/v2.10/bin/bin/../../lib/gcc/pic32mx/4.8.3/../../../../pic32mx/lib\libpic32.a(vector41.o)

.text%z365      0x00000000        0x0
 .text          0x00000000        0x0 d:/programas/microchip/xc32/v2.10/bin/bin/../../lib/gcc/pic32mx/4.8.3/../../../../pic32mx/lib\libpic32.a(vector40.o)

.text%z366      0x00000000        0x0
 .text          0x00000000        0x0 d:/programas/microchip/xc32/v2.10/bin/bin/../../lib/gcc/pic32mx/4.8.3/../../../../pic32mx/lib\libpic32.a(vector39.o)

.text%z367      0x00000000        0x0
 .text          0x00000000        0x0 d:/programas/microchip/xc32/v2.10/bin/bin/../../lib/gcc/pic32mx/4.8.3/../../../../pic32mx/lib\libpic32.a(vector38.o)

.text%z368      0x00000000        0x0
 .text          0x00000000        0x0 d:/programas/microchip/xc32/v2.10/bin/bin/../../lib/gcc/pic32mx/4.8.3/../../../../pic32mx/lib\libpic32.a(vector37.o)

.text%z369      0x00000000        0x0
 .text          0x00000000        0x0 d:/programas/microchip/xc32/v2.10/bin/bin/../../lib/gcc/pic32mx/4.8.3/../../../../pic32mx/lib\libpic32.a(vector36.o)

.text%z370      0x00000000        0x0
 .text          0x00000000        0x0 d:/programas/microchip/xc32/v2.10/bin/bin/../../lib/gcc/pic32mx/4.8.3/../../../../pic32mx/lib\libpic32.a(vector35.o)

.text%z371      0x00000000        0x0
 .text          0x00000000        0x0 d:/programas/microchip/xc32/v2.10/bin/bin/../../lib/gcc/pic32mx/4.8.3/../../../../pic32mx/lib\libpic32.a(vector34.o)

.text%z372      0x00000000        0x0
 .text          0x00000000        0x0 d:/programas/microchip/xc32/v2.10/bin/bin/../../lib/gcc/pic32mx/4.8.3/../../../../pic32mx/lib\libpic32.a(vector33.o)

.text%z373      0x00000000        0x0
 .text          0x00000000        0x0 d:/programas/microchip/xc32/v2.10/bin/bin/../../lib/gcc/pic32mx/4.8.3/../../../../pic32mx/lib\libpic32.a(vector32.o)

.text%z374      0x00000000        0x0
 .text          0x00000000        0x0 d:/programas/microchip/xc32/v2.10/bin/bin/../../lib/gcc/pic32mx/4.8.3/../../../../pic32mx/lib\libpic32.a(vector31.o)

.text%z375      0x00000000        0x0
 .text          0x00000000        0x0 d:/programas/microchip/xc32/v2.10/bin/bin/../../lib/gcc/pic32mx/4.8.3/../../../../pic32mx/lib\libpic32.a(vector30.o)

.text%z376      0x00000000        0x0
 .text          0x00000000        0x0 d:/programas/microchip/xc32/v2.10/bin/bin/../../lib/gcc/pic32mx/4.8.3/../../../../pic32mx/lib\libpic32.a(vector29.o)

.text%z377      0x00000000        0x0
 .text          0x00000000        0x0 d:/programas/microchip/xc32/v2.10/bin/bin/../../lib/gcc/pic32mx/4.8.3/../../../../pic32mx/lib\libpic32.a(vector28.o)

.text%z378      0x00000000        0x0
 .text          0x00000000        0x0 d:/programas/microchip/xc32/v2.10/bin/bin/../../lib/gcc/pic32mx/4.8.3/../../../../pic32mx/lib\libpic32.a(vector27.o)

.text%z379      0x00000000        0x0
 .text          0x00000000        0x0 d:/programas/microchip/xc32/v2.10/bin/bin/../../lib/gcc/pic32mx/4.8.3/../../../../pic32mx/lib\libpic32.a(vector26.o)

.text%z380      0x00000000        0x0
 .text          0x00000000        0x0 d:/programas/microchip/xc32/v2.10/bin/bin/../../lib/gcc/pic32mx/4.8.3/../../../../pic32mx/lib\libpic32.a(vector25.o)

.text%z381      0x00000000        0x0
 .text          0x00000000        0x0 d:/programas/microchip/xc32/v2.10/bin/bin/../../lib/gcc/pic32mx/4.8.3/../../../../pic32mx/lib\libpic32.a(vector24.o)

.text%z382      0x00000000        0x0
 .text          0x00000000        0x0 d:/programas/microchip/xc32/v2.10/bin/bin/../../lib/gcc/pic32mx/4.8.3/../../../../pic32mx/lib\libpic32.a(vector23.o)

.text%z383      0x00000000        0x0
 .text          0x00000000        0x0 d:/programas/microchip/xc32/v2.10/bin/bin/../../lib/gcc/pic32mx/4.8.3/../../../../pic32mx/lib\libpic32.a(vector22.o)

.text%z384      0x00000000        0x0
 .text          0x00000000        0x0 d:/programas/microchip/xc32/v2.10/bin/bin/../../lib/gcc/pic32mx/4.8.3/../../../../pic32mx/lib\libpic32.a(vector21.o)

.text%z385      0x00000000        0x0
 .text          0x00000000        0x0 d:/programas/microchip/xc32/v2.10/bin/bin/../../lib/gcc/pic32mx/4.8.3/../../../../pic32mx/lib\libpic32.a(vector20.o)

.text%z386      0x00000000        0x0
 .text          0x00000000        0x0 d:/programas/microchip/xc32/v2.10/bin/bin/../../lib/gcc/pic32mx/4.8.3/../../../../pic32mx/lib\libpic32.a(vector19.o)

.text%z387      0x00000000        0x0
 .text          0x00000000        0x0 d:/programas/microchip/xc32/v2.10/bin/bin/../../lib/gcc/pic32mx/4.8.3/../../../../pic32mx/lib\libpic32.a(vector18.o)

.text%z388      0x00000000        0x0
 .text          0x00000000        0x0 d:/programas/microchip/xc32/v2.10/bin/bin/../../lib/gcc/pic32mx/4.8.3/../../../../pic32mx/lib\libpic32.a(vector17.o)

.text%z389      0x00000000        0x0
 .text          0x00000000        0x0 d:/programas/microchip/xc32/v2.10/bin/bin/../../lib/gcc/pic32mx/4.8.3/../../../../pic32mx/lib\libpic32.a(vector16.o)

.text%z390      0x00000000        0x0
 .text          0x00000000        0x0 d:/programas/microchip/xc32/v2.10/bin/bin/../../lib/gcc/pic32mx/4.8.3/../../../../pic32mx/lib\libpic32.a(vector15.o)

.text%z391      0x00000000        0x0
 .text          0x00000000        0x0 d:/programas/microchip/xc32/v2.10/bin/bin/../../lib/gcc/pic32mx/4.8.3/../../../../pic32mx/lib\libpic32.a(vector14.o)

.text%z392      0x00000000        0x0
 .text          0x00000000        0x0 d:/programas/microchip/xc32/v2.10/bin/bin/../../lib/gcc/pic32mx/4.8.3/../../../../pic32mx/lib\libpic32.a(vector13.o)

.text%z393      0x00000000        0x0
 .text          0x00000000        0x0 d:/programas/microchip/xc32/v2.10/bin/bin/../../lib/gcc/pic32mx/4.8.3/../../../../pic32mx/lib\libpic32.a(vector12.o)

.text%z394      0x00000000        0x0
 .text          0x00000000        0x0 d:/programas/microchip/xc32/v2.10/bin/bin/../../lib/gcc/pic32mx/4.8.3/../../../../pic32mx/lib\libpic32.a(vector11.o)

.text%z395      0x00000000        0x0
 .text          0x00000000        0x0 d:/programas/microchip/xc32/v2.10/bin/bin/../../lib/gcc/pic32mx/4.8.3/../../../../pic32mx/lib\libpic32.a(vector10.o)

.text%z396      0x00000000        0x0
 .text          0x00000000        0x0 d:/programas/microchip/xc32/v2.10/bin/bin/../../lib/gcc/pic32mx/4.8.3/../../../../pic32mx/lib\libpic32.a(vector9.o)

.text%z397      0x00000000        0x0
 .text          0x00000000        0x0 d:/programas/microchip/xc32/v2.10/bin/bin/../../lib/gcc/pic32mx/4.8.3/../../../../pic32mx/lib\libpic32.a(vector8.o)

.text%z398      0x00000000        0x0
 .text          0x00000000        0x0 d:/programas/microchip/xc32/v2.10/bin/bin/../../lib/gcc/pic32mx/4.8.3/../../../../pic32mx/lib\libpic32.a(vector7.o)

.text%z399      0x00000000        0x0
 .text          0x00000000        0x0 d:/programas/microchip/xc32/v2.10/bin/bin/../../lib/gcc/pic32mx/4.8.3/../../../../pic32mx/lib\libpic32.a(vector6.o)

.text%z400      0x00000000        0x0
 .text          0x00000000        0x0 d:/programas/microchip/xc32/v2.10/bin/bin/../../lib/gcc/pic32mx/4.8.3/../../../../pic32mx/lib\libpic32.a(vector5.o)

.text%z401      0x00000000        0x0
 .text          0x00000000        0x0 d:/programas/microchip/xc32/v2.10/bin/bin/../../lib/gcc/pic32mx/4.8.3/../../../../pic32mx/lib\libpic32.a(vector3.o)

.text%z402      0x00000000        0x0
 .text          0x00000000        0x0 d:/programas/microchip/xc32/v2.10/bin/bin/../../lib/gcc/pic32mx/4.8.3/../../../../pic32mx/lib\libpic32.a(vector2.o)

.text%z403      0x00000000        0x0
 .text          0x00000000        0x0 d:/programas/microchip/xc32/v2.10/bin/bin/../../lib/gcc/pic32mx/4.8.3/../../../../pic32mx/lib\libpic32.a(vector1.o)

.text%z404      0x00000000        0x0
 .text          0x00000000        0x0 d:/programas/microchip/xc32/v2.10/bin/bin/../../lib/gcc/pic32mx/4.8.3/../../../../pic32mx/lib\libpic32.a(vector0.o)

.text%z405      0x00000000        0x0
 .text          0x00000000        0x0 d:/programas/microchip/xc32/v2.10/bin/bin/../../lib/gcc/pic32mx/4.8.3/../../../../pic32mx/lib\libpic32.a(general-exception.o)

.text%z406      0x00000000        0x0
 .text          0x00000000        0x0 d:/programas/microchip/xc32/v2.10/bin/bin/../../lib/gcc/pic32mx/4.8.3/../../../../pic32mx/lib\libpic32.a(default-on-bootstrap.o)

.text%z407      0x00000000        0x0
 .text          0x00000000        0x0 d:/programas/microchip/xc32/v2.10/bin/bin/../../lib/gcc/pic32mx/4.8.3/../../../../pic32mx/lib\libpic32.a(default-on-reset.o)

.text%z408      0x00000000        0x0
 .text          0x00000000        0x0 d:/programas/microchip/xc32/v2.10/bin/bin/../../lib/gcc/pic32mx/4.8.3/../../../../pic32mx/lib\libpic32.a(default-bootstrap-exception-handler.o)

.text%z409      0x00000000        0x0
 .text          0x00000000        0x0 d:/programas/microchip/xc32/v2.10/bin/bin/../../lib/gcc/pic32mx/4.8.3/../../../../pic32mx/lib/./proc/32MX795F512H\processor.o

.text%z410      0x00000000        0x0
 .text          0x00000000        0x0 d:/programas/microchip/xc32/v2.10/bin/bin/../../lib/gcc/pic32mx/4.8.3/../../../../pic32mx/lib/./proc/32MX795F512H\default_isr_vectors.o

.text%z411      0x00000000        0x0
 .text          0x00000000        0x0 build/default/production/lvgl/src/lv_themes/lv_theme_zen.o

.text%z412      0x00000000        0x0
 .text          0x00000000        0x0 build/default/production/lvgl/src/lv_themes/lv_theme_templ.o

.text%z413      0x00000000        0x0
 .text          0x00000000        0x0 build/default/production/lvgl/src/lv_themes/lv_theme_night.o

.text%z414      0x00000000        0x0
 .text          0x00000000        0x0 build/default/production/lvgl/src/lv_themes/lv_theme_nemo.o

.text%z415      0x00000000        0x0
 .text          0x00000000        0x0 build/default/production/lvgl/src/lv_themes/lv_theme_mono.o

.text%z416      0x00000000        0x0
 .text          0x00000000        0x0 build/default/production/lvgl/src/lv_themes/lv_theme_material.o

.text%z417      0x00000000        0x0
 .text          0x00000000        0x0 build/default/production/lvgl/src/lv_themes/lv_theme_default.o

.text%z418      0x00000000        0x0
 .text          0x00000000        0x0 build/default/production/lvgl/src/lv_themes/lv_theme_alien.o

.text%z419      0x00000000        0x0
 .text          0x00000000        0x0 build/default/production/lvgl/src/lv_objx/lv_objx_templ.o

.text%z420      0x00000000        0x0
 .text          0x00000000        0x0 build/default/production/lvgl/src/lv_misc/lv_templ.o

.text%z421      0x00000000        0x0
 .text          0x00000000        0x0 build/default/production/lvgl/src/lv_misc/lv_log.o

.text%z422      0x00000000        0x0
 .text          0x00000000        0x0 build/default/production/lvgl/src/lv_misc/lv_bidi.o

.text%z423      0x00000000        0x0
 .text          0x00000000        0x0 build/default/production/lvgl/src/lv_font/lv_font_unscii_8.o

.text%z424      0x00000000        0x0
 .text          0x00000000        0x0 build/default/production/lvgl/src/lv_font/lv_font_roboto_28_compressed.o

.text%z425      0x00000000        0x0
 .text          0x00000000        0x0 build/default/production/lvgl/src/lv_font/lv_font_roboto_28.o

.text%z426      0x00000000        0x0
 .text          0x00000000        0x0 build/default/production/lvgl/src/lv_font/lv_font_roboto_22.o

.text%z427      0x00000000        0x0
 .text          0x00000000        0x0 build/default/production/lvgl/src/lv_font/lv_font_roboto_16.o

.text%z428      0x00000000        0x0
 .text          0x00000000        0x0 build/default/production/lvgl/src/lv_font/lv_font_roboto_12_subpx.o

.text%z429      0x00000000        0x0
 .text          0x00000000        0x0 build/default/production/lvgl/src/lv_font/lv_font_roboto_12.o

.text%z430      0x00000000        0x0
 .text          0x00000000        0x0 build/default/production/lvgl/porting/lv_port_indev_template.o

.text%z431      0x00000000        0x0
 .text          0x00000000        0x0 build/default/production/lvgl/porting/lv_port_fs_template.o

.text%z432      0x00000000        0x0
 .text          0x00000000        0x0 build/default/production/lvgl/porting/lv_port_disp_template.o

.text%z433      0x00000000        0x0
 .text          0x00000000        0x0 d:/programas/microchip/xc32/v2.10/bin/bin/../../lib/gcc/pic32mx/4.8.3/../../../../pic32mx/lib\debug-exception-return.o

.text%z434      0x00000000        0x0
 .text          0x00000000        0x0 d:/programas/microchip/xc32/v2.10/bin/bin/../../lib/gcc/pic32mx/4.8.3/../../../../pic32mx/lib/./proc/32MX795F512H/crt0_mips32r2.o
